ccopy_reg
_reconstructor
p1
(crenthop.preprocessing.generators
Generator
p2
c__builtin__
object
p3
NtRp4
(dp5
S'preprocessor'
p6
g1
(crenthop.preprocessing.loaders
Preprocessor
p7
g3
NtRp8
(dp9
S'only_train_photo'
p10
I00
sS'loader_interest_level'
p11
g1
(crenthop.preprocessing.loaders
SelectorLoader
p12
g3
NtRp13
(dp14
S'columns'
p15
(lp16
S'listing_id'
p17
aS'interest_level'
p18
asS'loader'
p19
g1
(crenthop.preprocessing.loaders
JSONLoader
p20
g3
NtRp21
(dp22
S'sample'
p23
NsS'ftest'
p24
S'data/test.json'
p25
sS'ftrain'
p26
S'data/train.json'
p27
sbsbsS'only_train_response'
p28
I01
sS'operations_images_origin'
p29
(lp30
sS'operations_photo_stats'
p31
(lp32
g1
(crenthop.preprocessing.loaders
LogTransform
p33
g3
NtRp34
(dp35
S'cols'
p36
(lp37
S'sharpness'
p38
asbag1
(crenthop.preprocessing.loaders
ToNdarray
p39
g3
NtRp40
(dp41
S'dtype'
p42
cnumpy
float32
p43
sS'outshape'
p44
Nsbag1
(csklearn.preprocessing.data
StandardScaler
p45
g3
NtRp46
(dp47
S'mean_'
p48
cnumpy.core.multiarray
_reconstruct
p49
(cnumpy
ndarray
p50
(I0
tS'b'
tRp51
(I1
(I3
tcnumpy
dtype
p52
(S'f8'
I0
I1
tRp53
(I3
S'<'
NNNI-1
I-1
I0
tbI00
S'\x90LI\x1d\xfcc\x81@A\xf9b9U\xc4|@o\x1f\xb7\x0eSk\x17@'
tbsS'with_mean'
p54
I01
sS'var_'
p55
g49
(g50
(I0
tS'b'
tRp56
(I1
(I3
tg53
I00
S'\x00\x00\x00@<[\xca@\x00\x00\x00@\x12\xd8\xc9@\x00\x00\x00\xc0,6\xf3?'
tbsS'scale_'
p57
g49
(g50
(I0
tS'b'
tRp58
(I1
(I3
tg53
I00
S'\xa0\nu\xe3\x9a\n]@\x8d\xcc7\xbb\xfc\xc1\\@\x86Y\xb5\x00M\x88\xf1?'
tbsS'with_std'
p59
I01
sS'n_samples_seen_'
p60
I276714
sS'_sklearn_version'
p61
S'0.18.1'
p62
sS'copy'
p63
I01
sbasS'loader_photo'
p64
g1
(g12
g3
NtRp65
(dp66
g15
(lp67
g17
aS'photo_name'
p68
asg19
g1
(crenthop.preprocessing.loaders
CSVLoader
p69
g3
NtRp70
(dp71
g23
Nsg24
S'data/images_test.csv'
p72
sg26
S'data/images_train.csv'
p73
sbsbsS'only_train_images_origin'
p74
I01
sS'loader_response'
p75
g1
(crenthop.preprocessing.loaders
PandasColumnMerger
p76
g3
NtRp77
(dp78
S'on'
p79
g17
sS'input_pipelines'
p80
(lp81
S'images_origin'
p82
ag18
asS'how'
p83
S'left'
p84
sbsS'consumer_images_origin'
p85
g77
sS'only_train_interest_level'
p86
I01
sS'_cur_pipeline'
p87
S'photo'
p88
sS'consumer_interest_level'
p89
g77
sS'_pipelines'
p90
(lp91
S'photo_stats'
p92
ag82
ag18
aS'response'
p93
ag88
asS'operations_response'
p94
(lp95
g1
(crenthop.preprocessing.loaders
Selector
p96
g3
NtRp97
(dp98
g15
g18
sbag1
(crenthop.preprocessing.loaders
Dummifier
p99
g3
NtRp100
(dp101
S'output_cols'
p102
(lp103
S'high'
p104
aS'medium'
p105
aS'low'
p106
asS'kwargs'
p107
(dp108
sbag1
(g39
g3
NtRp109
(dp110
g42
g43
sg44
NsbasS'loader_images_origin'
p111
g1
(g12
g3
NtRp112
(dp113
g15
(lp114
g17
asg19
g70
sbsS'_fitted'
p115
I01
sS'only_train_photo_stats'
p116
I00
sS'loader_photo_stats'
p117
g1
(g12
g3
NtRp118
(dp119
g15
(lp120
S'width'
p121
aS'height'
p122
ag38
asg19
g70
sbsS'_base_pipeline_operations'
p123
(lp124
sS'_base_pipeline_only_train'
p125
I00
sS'operations_interest_level'
p126
(lp127
sS'_base_pipeline_loader'
p128
NsS'operations_photo'
p129
(lp130
sbsS'final_transform'
p131
g1
(crenthop.preprocessing.loaders
SeparateKey
p132
g3
NtRp133
(dp134
S'key'
p135
g93
sbsS'transformations'
p136
(dp137
g88
g1
(crenthop.preprocessing.loaders
PhotoLoaderGenerator
p138
g3
NtRp139
ssb.