ccopy_reg
_reconstructor
p1
(crenthop.preprocessing.loaders
Preprocessor
p2
c__builtin__
object
p3
NtRp4
(dp5
S'operations_photo_cover'
p6
(lp7
sS'only_train_response'
p8
I01
sS'only_train_origin'
p9
I00
sS'operations_photo_cover_gather'
p10
(lp11
g1
(crenthop.preprocessing.loaders
Selector
p12
g3
NtRp13
(dp14
S'columns'
p15
(lp16
S'listing_id'
p17
aS'photo_name'
p18
asbasS'only_train_sentiment'
p19
I00
sS'operations_photo_stats_photo_url'
p20
(lp21
sS'operations_origin'
p22
(lp23
g1
(crenthop.preprocessing.loaders
DateTimeExtractor
p24
g3
NtRp25
(dp26
S'datetime_field'
p27
S'created'
p28
sS'fields'
p29
(lp30
S'month'
p31
aS'day_of_month'
p32
aS'hour'
p33
aS'day_of_week'
p34
asbag1
(crenthop.preprocessing.loaders
NewSimplePredictors
p35
g3
NtRp36
ag1
(crenthop.preprocessing.loaders
LogTransform
p37
g3
NtRp38
(dp39
S'cols'
p40
(lp41
S'price_per_bedroom'
p42
aS'price'
p43
aS'price_per_bathroom'
p44
asbag1
(g12
g3
NtRp45
(dp46
g15
(lp47
g17
aS'bathrooms'
p48
aVbedrooms
p49
aS'latitude'
p50
aS'longitude'
p51
ag43
ag31
ag32
ag33
ag34
ag44
ag42
aS'num_features'
p52
aS'features_len'
p53
aS'num_photos'
p54
asbasS'loader_managers'
p55
g1
(crenthop.preprocessing.loaders
SelectorLoader
p56
g3
NtRp57
(dp58
g15
S'manager_id'
p59
sS'loader'
p60
g1
(crenthop.preprocessing.loaders
JSONLoader
p61
g3
NtRp62
(dp63
S'sample'
p64
I20000
sS'ftest'
p65
S'data/test.json'
p66
sS'ftrain'
p67
S'data/train.json'
p68
sbsbsS'loader_sentiment'
p69
g1
(crenthop.preprocessing.loaders
CSVLoader
p70
g3
NtRp71
(dp72
g64
Nsg65
S'data/sentiment_test.csv'
p73
sg67
S'data/sentiment_train.csv'
p74
sbsS'loader_photo_stats'
p75
g1
(crenthop.preprocessing.loaders
GetTopPhotoMerger
p76
g3
NtRp77
(dp78
S'input_pipelines'
p79
(lp80
S'photo_stats_sharpness'
p81
aS'photo_stats_photo_url'
p82
asS'values'
p83
g81
sS'urls'
p84
g82
sbsS'consumer_origin'
p85
g1
(crenthop.preprocessing.loaders
PandasColumnMerger
p86
g3
NtRp87
(dp88
S'on'
p89
g17
sg79
(lp90
S'origin'
p91
aS'features'
p92
aS'sentiment'
p93
aS'photo_stats'
p94
asS'how'
p95
S'left'
p96
sbsS'loader_ids'
p97
g1
(g56
g3
NtRp98
(dp99
g15
g17
sg60
g62
sbsS'operations_main'
p100
(lp101
g1
(crenthop.preprocessing.loaders
ColumnDrop
p102
g3
NtRp103
(dp104
g15
g17
sbag1
(crenthop.preprocessing.loaders
ToNdarray
p105
g3
NtRp106
(dp107
S'dtype'
p108
cnumpy
float32
p109
sS'outshape'
p110
Nsbag1
(csklearn.preprocessing.data
StandardScaler
p111
g3
NtRp112
(dp113
S'mean_'
p114
cnumpy.core.multiarray
_reconstruct
p115
(cnumpy
ndarray
p116
(I0
tS'b'
tRp117
(I1
(I83
tcnumpy
dtype
p118
(S'f4'
I0
I1
tRp119
(I3
S'<'
NNNI-1
I-1
I0
tbI00
S"\xcff\x9b?!\xb0\xc6?\xd7\x00#B\xf2\xf1\x93\xc2\x83\xa0\x01A\x8eu\xa0@33tAd7\xa7@\xe8\xd9:@\xb5{\xea@\xdb\xc9\xe8@]\xfe\xad@\xc1J\x1fA33\xb5@\xea\x952=\x17\xb7Q:\xb0\x03g<\x93\xa9\x82<\x9f\xab-;|\xf2\xb0:\xcc\xeeI=;pN;\xbak\x89>|\xf2\xb0:\xed\r>;\xc8\x98;<\x00\x00\x80=\x8e\x06\x08?\x11\xc7:;;pN;\xe7\x1d'=\xed\r>;v\xe0\x9c<l\ty;4\x80\xb7:\x8cJj<\xda\x1b\xbc>\x0e-\xb2<\x82\xe2G;?5^>\xed\r\xbe:.\x90\xa0;P\xfc\xd8=g\xd5g<P\xfc\xd8>7\x89\x81=\xc3d*;4\x807;\xd74\xef<\xf0\x85\xc9;'\xa0\x89:k\x9a\xb7=\xc6\xdc\xb5; \xd2\xff>0*)>\xb0\x03\xf7>l\ty:4\x807:*:\x92<\x06\x81\x15>>\xe8Y<\x17\xd9N=u\x93\xd8>\x04\xe7\x8c;\xed\r\xbe:#\xdby<K\xea\xe4>\xdfO\x8d<RI\x9d;\xdd\xb5\xf4>\xa4\xdf\xfe>\xf2A\xf7?\x98\xddS>/n\xa3>\xfc\x18\x07@9\xd6\xd5>j\xbc\\?\xff!\r@\xd9=\x85?\xf6(\xdb@\xd1\x81\xffC\x98\xfe\xd4C\xbe@3@"
tbsS'with_mean'
p120
I01
sS'var_'
p121
g115
(g116
(I0
tS'b'
tRp122
(I1
(I83
tg119
I00
S'w\xbe\x82>\xc9\xfd\xa2?uV\xdb:%\xbb\x84:\xc1\xb5>>g\xa1-?\xae\xd2\x88B8\xf8\x89A\xd3\xdcL@P\xc4\xf2=?\x06E>\xa7mwA$\xcfiBE\xc8`A\x9c\xcc*=&\x8cQ:\xce\xc1c<\x0c\x94\x80<\xce5-;Y\xb5\xb0:?\xfa?=\xbf\xc9M;\xfa\x12I>X\xb5\xb0:\xd3\x80=;\xe8r9<\x00\x00p=]\xfe~>\xca>:;\xbf\xc9M;fL =\xd3\x80=;e\xdf\x99<(\x17x;p>\xb7:\xdc\xf0f<\xc9\xfem>\xfbL\xae<oFG;\'\xfd->_\xc7\xbd:\xc5\xc6\x9f;\xfa\xfe\xc1=\x9b\x8dd<\xe2\rz>\x88\xafr=V\xf3);\xaf\xfc6;\xb88\xe8<\xacH\xc8;&{\x89:\xa7$\xa7=c\xda\xb4;\xf5\xff\x7f>\x028\r>D\xaf\x7f>\xda\xccx:Q_7:\xf9\x9d\x8f<TZ\xff=S\x02W<\xf5fD=\xc1\xedy>\xe7K\x8c;_\xc7\xbd:\xb5\x0bv<k"}>\xd5\xdf\x8a<\r\x88\x9c;\x8f\x80\x7f><\x97\x0e?\xcb\x89q@\xe7=d>)\x8d\xbb>yq\x8f@W \x04?\x97\x90\x9d?U\x19\x9c@\x08\x04\xcc?\x9fG\xccA\xca_\xeaF\x17n\xb5F\x96\xf7J?'
tbsS'scale_'
p123
g115
(g116
(I0
tS'b'
tRp124
(I1
(I83
tg119
I00
S'_]\x01?\x9fp\x90?\x80\x8e\'=\x14X\x02=\xda\xf4\xdc>\x8d\xd4R?\x86V\x04A/\xe4\x84@#\x02\xe5?TG\xb0>\xa9\x95\xe0>|\xad{@2\xa7\xf4@E\xe2o@\xb4\x1aQ>\xb0\x9c\xe7<Hw\xf1=\xf1I\x00>/\x93R=#e\x16=\x85\xb0]>i\x86e=\x88\xe1\xe2>"e\x16=\x9bA\\=+\xe3\xd9=\xf6\xdew>\x0e\x7f\xff>\xd0ZZ=i\x86e=\x0e\x93J>\x9bA\\=cW\x0c>\xa3\x03|=\xa6&\x19=\xd7%\xf3=a\xd5\xf6>\xf1]\x15>\x1f\xdda=9\x0c\xd3>\x9f\xdb\x1b="\x02\x8f=\x82\x94\x9d>9\xe3\xf1=x\x02\xfd>\x03Ay>\x89\x95P=\xb3oX=Th,>\x0f\x1d\xa0=\xe6\xa7\x04=\x9bD\x92>\n&\x98=\xfa\xff\xff>\x06#\xbe>\x9f\xd7\xff>\xda_\xfc<\x00\xaa\xd8<y\x95\x07>W\xca\xb4>k\x9c\xea=\xcd:`>7\xf2\xfc>\xdd\x01\x86=\x9f\xdb\x1b=9\xf9\xfa=-\x90\xfe>\x8cS\x05>v\x8c\x8d=@\xc0\xff>\xe6\x0e??\xfd\xa9\xf8?\x08\xb9\xf1>\xc9\xf0\x1a?v\x80\x07@\xf8\xe97?\xdf\x03\x8e?]Z\r@+\x99\xa1?\xee\xb3\xa1@l4-C\x1fd\x18CK\xf2c?'
tbsS'with_std'
p125
I01
sS'n_samples_seen_'
p126
I20000
sS'_sklearn_version'
p127
S'0.18.1'
p128
sS'copy'
p129
I01
sbasS'loader_origin'
p130
g62
sS'only_train_photo_cover_gather'
p131
I00
sS'operations_photo_stats'
p132
(lp133
g1
(g12
g3
NtRp134
(dp135
g15
(lp136
g17
aS'avg_width'
p137
aS'avg_height'
p138
aS'avg_sharpness'
p139
asbag1
(g37
g3
NtRp140
(dp141
g40
(lp142
g139
asbasS'consumer_photo_stats'
p143
g87
sS'only_train_managers'
p144
I00
sS'operations_photo_cover_stats'
p145
(lp146
g1
(g12
g3
NtRp147
(dp148
g15
(lp149
S'cover_width'
p150
aS'cover_height'
p151
aS'cover_sharpness'
p152
asbag1
(g37
g3
NtRp153
(dp154
g40
(lp155
g152
asbag1
(g105
g3
NtRp156
(dp157
g108
g109
sg110
Nsbag1
(g111
g3
NtRp158
(dp159
g114
g115
(g116
(I0
tS'b'
tRp160
(I1
(I3
tg119
I00
S'\xf7\x1a\x03D\xb4\x85\xceC\xae\x9a3@'
tbsg120
I01
sg121
g115
(g116
(I0
tS'b'
tRp161
(I1
(I3
tg119
I00
S'mK\x07G%\xbb\xbeF\xec\x8bZ?'
tbsg123
g115
(g116
(I0
tS'b'
tRp162
(I1
(I3
tg119
I00
S' \x1b:C\x99?\x1cC{\x88l?'
tbsg125
I01
sg126
I20000
sg127
g128
sg129
I01
sbasS'operations_ids'
p163
(lp164
g1
(g105
g3
NtRp165
(dp166
g108
cnumpy
int64
p167
sg110
NsbasS'loader_response'
p168
g1
(g56
g3
NtRp169
(dp170
g15
S'interest_level'
p171
sg60
g62
sbsS'_cur_pipeline'
p172
S'ids'
p173
sS'consumer_sentiment'
p174
g87
sS'only_train_main'
p175
I00
sS'_pipelines'
p176
(lp177
g91
ag92
ag93
ag81
ag82
ag94
aS'main'
p178
aS'response'
p179
aS'managers'
p180
aS'photo_cover_stats'
p181
aS'photo_cover_gather'
p182
aS'photo_cover'
p183
ag173
asS'operations_response'
p184
(lp185
g1
(crenthop.preprocessing.loaders
Dummifier
p186
g3
NtRp187
(dp188
S'output_cols'
p189
(lp190
S'high'
p191
aS'medium'
p192
aS'low'
p193
asS'kwargs'
p194
(dp195
sbag1
(g105
g3
NtRp196
(dp197
g108
g109
sg110
NsbasS'only_train_photo_cover_stats'
p198
I00
sS'operations_features'
p199
(lp200
sS'loader_photo_cover_stats'
p201
g77
sS'_fitted'
p202
I01
sS'only_train_photo_cover'
p203
I00
sS'consumer_photo_stats_sharpness'
p204
g77
sS'only_train_ids'
p205
I00
sS'loader_features'
p206
g1
(g70
g3
NtRp207
(dp208
g64
Nsg65
S'data/features_test.csv'
p209
sg67
S'data/features_train.csv'
p210
sbsS'loader_photo_cover_gather'
p211
g77
sS'consumer_photo_stats_photo_url'
p212
g77
sS'only_train_photo_stats_sharpness'
p213
I00
sS'operations_managers'
p214
(lp215
g1
(crenthop.preprocessing.loaders
CategoricalFilter
p216
g3
NtRp217
(dp218
S'top_categories'
p219
I999
sS'category_mapper'
p220
(dp221
V861afee72eb11f65b45abc0fed322417
p222
I617
sVec4a185a4728e76b351ec7eb1a73b7c3
p223
I458
sVe2aa71ea7e46aa975a6cefa35f64d28b
p224
I826
sV41735645e0f8f13993c42894023f8e58
p225
I42
sV857aa652c82bfd91c53c9ca0385eaa6d
p226
I890
sV5bc73e6df7d8c3f210c3d4216a580668
p227
I603
sV0246857142b0b3318d5b518f05bca11b
p228
I313
sV58dc2727cd3c4e966e38d97c25a42837
p229
I372
sV7d28decc8e53977e80b7d9a05f624adc
p230
I582
sVe1c98bf7f1a044ec4df76abee5f0f5e6
p231
I145
sV81c2d2e6ad88e2d09d7f9260104f47d5
p232
I587
sV36037ab2a7c5d2c29f0bea59fee2a47b
p233
I248
sV2aef12e4b30eb35153b7654cdeb2f5a5
p234
I392
sV53f240454714b223c7aaa73437c24e8a
p235
I530
sVe97ed211d28bd4ee9e975cd65b76c46b
p236
I896
sV624c1fbd75e5f99e6a7164cce1b1b8a4
p237
I216
sV7682b0f331eb4087774541e707d11d57
p238
I180
sV13018d720355f7be3325c544876e2c7a
p239
I990
sV4595bb2d17386a6263bdf79eae2b4cce
p240
I988
sVcbcdd7b2f2edb96d73cae07bb25704f8
p241
I691
sVc5b622968c56a79b974e343d3a41ce68
p242
I986
sV91f8a99bd7c5f2a6d50c04ae3972364d
p243
I563
sVcbcd513212d592e6c717d27be14f46ac
p244
I274
sV47a651c2951eddcb06e8a79d6b1f28a9
p245
I954
sV62d134df24469cbf5509ec6b71096cf2
p246
I187
sVce9605e5f21262b82deb0c5ef10dcf45
p247
I183
sV6b3fc4bf56631914dce770d406ed8007
p248
I770
sV1729cc4d62ab0cec44dcfd6757d44d65
p249
I215
sV797f306f24780e1a24e4f063d46a2d8d
p250
I323
sVdf86259b169a78c024e4d5206d48cf44
p251
I576
sV4bb850e243db09298a0bda50f9a99c81
p252
I832
sV7a517a00e01a97380b6076b7ae9adc37
p253
I972
sVb90228c187744e99a88c01c597bdc253
p254
I408
sV0b9d5db96db8472d7aeb67c67338c4d2
p255
I204
sV50cc9e98a3d20b01a0e4eac01ac57d9c
p256
I967
sV5239c98c3c2228c0369842750684054d
p257
I50
sV72f1faabecc254c634629d8b29a30560
p258
I805
sV72cd64f85617625498465594c074a63a
p259
I109
sV1cf642a07b4d7587d89519f8e4068c10
p260
I352
sVef20d40b528500037e37b167787ac089
p261
I277
sV9ab3ec6493d605fa0effea43b1141f6f
p262
I690
sV7b159051957a4788a872ecb307613757
p263
I229
sV9df32cb8dda19d3222d66e69e258616b
p264
I7
sV82e1897fc7e3d5f5cca27a6ffed02e21
p265
I405
sV76a7b8c8e01b7192330128f82a3445fb
p266
I932
sV0bafd514443193d057e8a60e45cb7ea6
p267
I385
sV370a9b35c74f968387f3be370fbed8e6
p268
I790
sV0b8a0fb573c92be71bc4e077aec9a570
p269
I124
sV46f0c2d3ec259176e74bd67d5d4e22ff
p270
I309
sVf44a6215f74f901ac7e326207f2984f7
p271
I608
sVe97e905f8a821f1446a1bc42f4d8802e
p272
I379
sV92a757ce36e48af73be556e51f0cdfa2
p273
I814
sV95dc9b4f3c3ee921254be49230a9c680
p274
I232
sV77a807f61bff3244a81c0d8f0ea0c508
p275
I404
sV456848d13f96dc522e5cf381095caeca
p276
I243
sVf2e219adb3eb11777137b8674ec1c3cb
p277
I998
sV46c8fa1bae81f16584746079385f29fc
p278
I516
sVd5d246c9d9d4e7079e5a0fc962d2f1a7
p279
I381
sVf44b351aa3ce83001ac18776520c3b39
p280
I565
sVc98786b9944c37c6a7edadc2a7f9bbb9
p281
I228
sVcb87dadbca78fad02b388dc9e8f25a5b
p282
I6
sV7650567c7ba11f54a266cbd078f1bdc1
p283
I973
sV835a254786118d88c822b4ab68c92e31
p284
I127
sV6b078853a3262a140e5fbb6deec8818d
p285
I724
sVd024c48f43195c6c978a8f51aa46715c
p286
I540
sVd0f2082e8b795095061785ef5e8ac9e7
p287
I178
sVb4518af7cc5d79517aca4157f1614478
p288
I883
sV185d30820f746e14d4867cd6c40b6e42
p289
I554
sV5c6dccec2e084c32a67f938c9463238d
p290
I544
sVbfbe7635b18f639c254948d1b02c4822
p291
I464
sV28d0fc0861cb780882b642cfb66e9507
p292
I936
sVbb69ec0a9617ec3fe72b180598d866ed
p293
I509
sVf45a2445c177379cd795189950ebba4f
p294
I756
sV603575a3da76fa757cd6451f3707819d
p295
I506
sV0577b9cf7d26e41800d814cb70b2bbf0
p296
I993
sVe28372ddd144d86e64a35483f8a02e9b
p297
I659
sV5baf5399ced8335c1346efd92e30331d
p298
I952
sVc80aad40b6abd065b4aefee40a2154f6
p299
I879
sV5b5cc2f83fc016e964b14931c6afa0b5
p300
I937
sVc722e143a8b773707686f79bf5f5250c
p301
I951
sV8b53ccf4338806ab1be3dd0267711649
p302
I18
sVa1bcf3f6e20057f11af959649b505d6a
p303
I913
sVd2b7068bc4e5e74ba13954559d1d120d
p304
I133
sVb5b5d584aa9de238d448fab53af43272
p305
I833
sVfb520ae87b8a3b3eb646e137f0c8ddc8
p306
I933
sVf11259a85cd2a26516470210420c2712
p307
I854
sVb9e74dc56199a8e6577aa8bb3550f1e4
p308
I289
sV5546ad6e8ea7f292696bec3c1c0ccb2d
p309
I89
sV9e829d1af81377f3f2108283cc083efb
p310
I885
sV636e7de4b5bcbfaa484a88a470c7ca4c
p311
I560
sVf61b82ca57be7e33219f4ec8de68555c
p312
I953
sV3bf7bc10ba7d7520f86cbf914d24c323
p313
I56
sV932589de9230b697808216774fa26bd4
p314
I700
sV90ddcebc5f1df89389cbc519535e0f2a
p315
I779
sVd306f3a34a793e6cb93b53226fc17653
p316
I731
sVfe7076077ae23563520d054a917e3544
p317
I337
sV8ce0dca957ae00f6870a164ead5081f8
p318
I207
sVfe05aab6eeabe8980f88e214088b9232
p319
I712
sV605757e0108c66606280905d76d50e80
p320
I391
sV767decc9bc00fab3d65e9becc8529ca1
p321
I581
sV9ebb4938732754c8d5f32822ff0219da
p322
I299
sV0cfc69618cbbe76e0e898013fff30180
p323
I713
sV9e1fcda69b697b0dbac0fdc8eec33af2
p324
I733
sV2637547481b1d0b116843dcd4cf94211
p325
I123
sV6eeddf8fe9342325ab9996ad93284894
p326
I393
sV0c90cd639a3cb7f7b8ecff7a488995ee
p327
I904
sV9f39caedae295bf81e67463e6fd0af40
p328
I24
sV5bd8302e3234eeb4e267dc4a7db1c838
p329
I306
sV2d36cb7738bcb9b089c8d9b9fff44674
p330
I457
sV7f6d00384a19d9bdd15ff36ddbad699a
p331
I203
sVd953a9d088238cb48f488efd441d89c3
p332
I722
sVf015101303ab7b240ffab71ed93f88ca
p333
I705
sVdd85ae9242e4012be8a386d37c1d9453
p334
I515
sVa7b7dd2363a6c3cf3d7c60c5fccc7244
p335
I810
sVdd36b42e307fbd7c8f2d9607a52cb791
p336
I161
sV5bcd1371394f97d7aa0aad0901bae8a0
p337
I240
sV2a4e0d2668fde3afa267d312b3a2a9d8
p338
I38
sV2f512c1b9bc91292647caf69980f3d52
p339
I968
sVd1762ef0af965cfb5946ba0e209cc1c5
p340
I74
sV44736fb7de33f8ea3c34c0500e6932c3
p341
I440
sV3813434aabfbad659a45f86a740cd23f
p342
I454
sV8fcfffa4e06cfe09f55215ea1a5e5c84
p343
I529
sVcdc8a6277042fdda92ba2c977459d04e
p344
I650
sV5a1f23b92187d3703bf71108b47d7565
p345
I478
sV66f8f5a9fff474db421459fd2bfb3032
p346
I771
sVb3a32ffa816fd256ff8b8ab548c5ab93
p347
I631
sVb5eda0eb31b042ce2124fd9e9fcfce2f
p348
I122
sV15cb1bfaa5e4583d5df9269942064a0e
p349
I241
sV8d9e62a4f9f497cb8c297660a3da7efe
p350
I597
sV5a002b00880a84406292a8dfe54f8c72
p351
I158
sVf7770bf65a8415b3d4eec56c163e0415
p352
I748
sVf5467b66817daf3251b040c9ef2d6a5a
p353
I462
sVcf36aeba79d8e830f8353e30ab551520
p354
I328
sV77e00a2ddf0c8b994f256db73f72cffd
p355
I892
sV7926a6d7110757ff84fd6c692f8761fe
p356
I789
sVa04d15bfff8a474ff388071ff9e46a24
p357
I238
sV220d269dbafc05b4b947ce67aae0a65e
p358
I170
sV5511bb6c502eaf88b51bac57f7ad0be7
p359
I514
sV76f6d0b50ac0b1cf36eebb7e5c8f88ee
p360
I442
sV50a6b80a34192d1f0ab1ef363a7e0a3e
p361
I193
sV62826f3ae01f2ddc93b9cd28c659ab2b
p362
I21
sVc1446956537726a4cff20145b40fc605
p363
I849
sV35dc123b6f5f9ea6d7b755f21b9c3585
p364
I322
sV9d3a8dd3eeaf09f0214de38b02c9eb60
p365
I214
sV103ae490ec43101589e7d0033798f7c6
p366
I749
sVc44ea3e83ff2048561ab5c21a2d0c90e
p367
I742
sV85860e99ade732afc385111568f8e602
p368
I41
sV8365f1154ced533439de202ebada41e2
p369
I67
sV3e04672678ee02c7bb843a9d4641c440
p370
I687
sV0a6a312ce7972d52c2948122422bd902
p371
I869
sVb5d90f1b957456dfe7a3ad061efed280
p372
I282
sV1eda3a54481c40800e76bab850869df7
p373
I284
sVa17b24ca280c4e95612e3de2816d69d7
p374
I344
sV460d813aef3f598dabf7e312e0eb373a
p375
I689
sV9ab151c9cc172d42fec8cb57edc21caa
p376
I845
sV0000abd7518b94c35a90d64b56fbf3e6
p377
I632
sVfb0f7c32dd8e72883397bb11f3591a63
p378
I363
sV1b206064db4eb834478598faf5c0442e
p379
I894
sVbaf2b718f413a41eba82a1354a82ca86
p380
I786
sV35fc09b29adc23a8beed56f0aa3aaf37
p381
I776
sV88546921fe21ff334e8d32e4b6929e2c
p382
I262
sVe60b02e0cfd2eea7d777bb283d6f8d4d
p383
I754
sVc953493d62b7f58e7e248ea6bbf34f29
p384
I654
sV78d7357edb37f6769c543e3b4666c142
p385
I609
sV333d32700fc44387e634f84880fe37e4
p386
I665
sV63c3a69116cae652632b0e80661cd3b5
p387
I898
sVde132f59c216769a46da84109bf5fa00
p388
I830
sV2eb205ff26404c7eaacc71b2b71198f5
p389
I151
sV05576da68c73dab5d4b176f90f259850
p390
I501
sV6068ea8cea1caf52cbe823940c5e4875
p391
I259
sV0f603f95bdee83f8ffa9752d8d58e22a
p392
I513
sV287e23e5a3f64c939cdb8109713b25e4
p393
I420
sV8d425b08cdf4dec134bf5b714ebac267
p394
I164
sV097ed047cd8f606519a6e709ecd94af1
p395
I599
sV6754a7c08b7298e919ec2d3c6dc6ed17
p396
I407
sV782b04129d661ae064fe013aeb297ace
p397
I176
sV6fba9b3a8327c607b8b043716efee684
p398
I348
sV8cdddf7fdb66d4db900fe5b5b62cbc47
p399
I940
sV293a5d2579bc2eb7b20736ae2395e9e5
p400
I63
sVf01d80f465348a6054bd7a9004af53b4
p401
I415
sV1b406af9c37da4a580702e288a44c9fd
p402
I472
sV1552b3fc542737851c0f30fa33cc9d4d
p403
I831
sV5856ea690d343df5f3bc66315babb280
p404
I614
sVaebdbd87c7ad92ded6fb2a52ce3ae4f5
p405
I430
sVc92135646d8aa5e4f9bc5c40add47f7b
p406
I735
sVa7318e9bd83f6d32ed56b3b1d046b449
p407
I98
sVc8e5586edfdb8fd3cdc6f9c3a9bf4678
p408
I891
sVa7b1843113e8780eb0f881ab1596a9a8
p409
I239
sVfd1d4ee0095d41d209e23530141eaabf
p410
I410
sV91b971fec2a741ddedfe2370b899ed12
p411
I508
sVae81fcd67b01360386eae48a4b456466
p412
I976
sV8041c36376187cdd2a42b2f126509f10
p413
I417
sV5ddf0c4501d77ff306b4601c37b7b835
p414
I846
sV2279c1b4b458c7060354f77cef33b24e
p415
I884
sV6dffb6cf508fc0c73fc0bdcc8d0e0df5
p416
I797
sVb89e62bf8cdc98e9fb8b97d9bc627197
p417
I219
sV4e59df2dd8eeda7d96e5db7d14cdf119
p418
I862
sVeb5a6c4c2eb6f3e2a085c477afd5a815
p419
I31
sV56a47485fe5b97a07c9b4ad82dd324f9
p420
I902
sV8bc1f9d891f33bc4a05cac58b38ff354
p421
I144
sV2a46aafb5509a067ee3d428cfa1180c1
p422
I275
sV8425975ed2735928a3ce1113d53d1661
p423
I978
sVa1cb9e0d9baa79f6ea89b23d7b9d1b9d
p424
I438
sV1a86f938a495c28c9720b6834cb7aeb6
p425
I876
sV076cbd2a0e4532eab964ae9bacd2efec
p426
I709
sVe8088b12da6c32b97ac8a19a047d76b0
p427
I218
sVf4998a041496eaa54b16339d4b0b3045
p428
I450
sVfa0e15022a76c748bbc5e1f420439921
p429
I780
sVaea47aba66a01cf236746e209c2b7f88
p430
I434
sVc7becdd5c4a5f8a28bdc91cfefe794c7
p431
I167
sV21167417dbc081140b0deb1951dce434
p432
I257
sV5a72de95cac7a85578ef414adb094111
p433
I330
sV84a317f6bce6e3c05dec6fb070dd7e0b
p434
I276
sV5e9eba8a0e49cd0c15d278e3d6407c67
p435
I816
sV10b1ae0a38d50b7ba0cee612d14af9eb
p436
I268
sV048ff8c9b8a4831e117e113d3cc5926b
p437
I743
sVe65c724a97d4c6d8ae9326a08891fc31
p438
I611
sV2f1ef900b16e97a4b1a1110ee74622f0
p439
I981
sV7ca1c6b89d79c76780d1b978c846c02e
p440
I675
sV40ae2c27e67c61170a6a8e019b2ce38c
p441
I960
sVe5acbe53376113cd818601047af3278e
p442
I999
sV6c2a16187e6855c132bb496b875a4ef7
p443
I672
sVbbe1b91ce934cb494455b7bb2ac00092
p444
I946
sVb6eede52209a5ea2842b4ce92f2574d3
p445
I196
sV75ddbd546fd121d8ef402a3b4bc38dd0
p446
I991
sV1fa37642bd8ffbffd5dfffb8aeb91215
p447
I293
sVae6a7f07ee1bf1958fc029059f2fb8a2
p448
I251
sVe32475a6134d6d18279946b7b20a0f12
p449
I949
sVe304e47b1c1d5dde4fa872999b56cf43
p450
I253
sV465641627d253016ac8683943fd94ffe
p451
I607
sV3b630ec9cb6eee53b92cfac7f42e3bf4
p452
I356
sV09703fead6059562ab26a3522f738f87
p453
I893
sVfb60730bb18106e8591ad8a29a307ba7
p454
I806
sV1133f564d46b8a76c96857ad34fb4d16
p455
I254
sV36665067f02a1eefb569f8ef049f32fc
p456
I704
sV92758310b2a962b943484e8be0237a19
p457
I428
sVa1841789a82704b496226f635311e431
p458
I838
sV0b802a1a724fe2e3508916a0b769f767
p459
I793
sVd2bce61e0e0079ebdc8c281e415e045b
p460
I14
sV271624e9531a410de9da61e28343d88a
p461
I924
sV70c9035cc23844487e1754b0d58577f5
p462
I802
sV8706619681cf850b3f554ffe75a891c0
p463
I533
sV82bc24a1b23b361a39c00bf2fecd3967
p464
I559
sV12c3a2f5c3299f3e3a26c192f52e61ad
p465
I94
sVd82432ca41910a345ee9591c37280484
p466
I314
sVdd6b488d74624d64a0ba4767d990da83
p467
I79
sV320cddc2d3d957c8c02031f60d72b35e
p468
I583
sV277517a143b394a4f404c2e3e34c12ea
p469
I366
sV119d9b577a2506cd7348d01fd5d0830b
p470
I138
sV19bc090c14e88401ebcde3b994e0b078
p471
I585
sV64c4a5d775d613d9ffd24bc6a97f859e
p472
I827
sVe1daf36ab7db573b577ffbff5f98056a
p473
I335
sVc3b8b8fcf45c96f9649068bb7d4e3ad0
p474
I589
sVc3b7c269756b10a84641f04868f30db1
p475
I877
sV95f23db28b91c719b620588a76baf84a
p476
I906
sV2777b4cbbabcaecd4c14b703de27a668
p477
I899
sVc0fcf6251a4d39c3e1ab21aee7859db1
p478
I646
sVe0af09eba42a9af0626d15c8d9505043
p479
I181
sVd1820cdaa5a813133038b747e49612c5
p480
I647
sV23fe9db389d31048a104bd4686879a77
p481
I90
sV0176ff9c2592a72403fca7904a582345
p482
I325
sV2a1ee03b449700c3a15dd8c9a505c525
p483
I169
sVa2c90ad4e5ae7f1c2013c2ad57d372b0
p484
I637
sVf916882b088956770621936f30c2d865
p485
I929
sV093fbdecba7bddd18c7066b0b291566c
p486
I725
sV096ce7507f4f3678b32780d20bfab49f
p487
I673
sVb3a99b484063daa29f182224e89ec0dd
p488
I570
sV039f71509440109bf7beefdbb2f02c61
p489
I808
sVe0f4c69279ce5ae6421b39d46303554b
p490
I100
sVd13ddb71931663b61d2c105617d0c9cf
p491
I715
sV95dde20058eaecb4e53e93f08d9894f8
p492
I545
sV8d2926bae27fce9f700b488934563844
p493
I507
sV25054758b3fe036c96ba03ada2336501
p494
I803
sVaf9bfbff38d178883dfcddbee76a5fc1
p495
I395
sV29351e3e25283e3c6c324f7d0904153b
p496
I915
sVe9327c69dd63f065a8352a4093f76fc5
p497
I864
sVf19288238987b18a693e16ee23720c20
p498
I475
sV0386cfff64b663778a1d6c1baceb6570
p499
I728
sV67e232e16c6614f1a9e543d91db326d7
p500
I249
sV1a4dd24b22749ffaa3398b1b1b61c9ff
p501
I422
sV77575eb00fc09f61d55ea99b6c9cb845
p502
I473
sV77593241a85f1762f4045b9c78c634a1
p503
I867
sV91850e29b21728014e045b7176dce098
p504
I875
sV32d5236524615bc2e4f5679ad3eac137
p505
I921
sV9ba3641676cc717a8b65d59dac8545fb
p506
I76
sVd7a3443df577b7a71df95b475a1886e1
p507
I286
sVbc9a2ff7c931ce7de08f50d429134a16
p508
I101
sV9d0759d03c6704318bf64755fd50728c
p509
I750
sV10c73d5ae791ac8f78b2d6a70f885219
p510
I561
sVb20fcc6c65ec4cdd3ec5f5b59c3fc0a8
p511
I795
sV8063dd01666d424edde651c1d24d196f
p512
I134
sV5f60c639225516384a2b6496caa20a2a
p513
I217
sV71fdb55d23d1662c6a52e214b9d7a51f
p514
I787
sV0c28a1c6c0b742921727e0e3850802d7
p515
I413
sVe6f6c3c18136d0dafd7468b6d4965479
p516
I212
sVe99ac1cf98b9d5fa206b682b0848d548
p517
I211
sV9dabdb9265d1817435c38f5488d90141
p518
I874
sVaa316c4ec7bdc5f6d921136f3768d1d9
p519
I292
sV77f81a0a8af6db8349587acefd1b533f
p520
I71
sVf41dff3ea2432580ae71232637b3e215
p521
I974
sVf510c42fc9e8765f19317cf2f84e3114
p522
I431
sVe4a9d8645100fae16292a6a6e2074dc0
p523
I625
sVd6cb3ffc17469f1cc679548165ef3af0
p524
I649
sV8b47e0cb1a5f4dc02a34ebbfe25c9eda
p525
I633
sV13ff36e69fce77d5c15960ecc277cd89
p526
I751
sV781c05e464ce94eaa436401d07f2a6cc
p527
I34
sV75779b27788a2ed81680336fddd8867e
p528
I815
sV11f9faa7f2dde022e11c742fc1646a89
p529
I623
sV56d5b16222f138a23725efa0baee9889
p530
I113
sV17fd2aa530e808f512162a1e5b5bbbd2
p531
I723
sVd47d6bf350810f4999e3467c4caa5dd2
p532
I657
sV23a01ea7717b38875f5b070282d1b9d2
p533
I881
sV1fb46c4a72bcf764ac35fc23f394760d
p534
I9
sV79a6288cc6bcedd8b672e158e15a765d
p535
I688
sV2451d781a4d2e23ee30cfd0caae3246f
p536
I615
sV612a00076aefe8c98d1df4835640c74b
p537
I23
sV65322e6138b5aaa5467cdc31a19112f9
p538
I517
sV568fca5605da0512654cb9cccde50d53
p539
I839
sVc1a6598437b7db560cde66e5a297a53f
p540
I85
sV2e6ea7edc29e01efafb7e1c22ee10c9f
p541
I443
sV29615d444c968e27d56581c1f94cf82d
p542
I757
sV79043887df9d409475245ca4fc3bfabe
p543
I930
sV20c56899ba45dee967a4d1143e5bbfb4
p544
I676
sVc263bcf5f24052b8d2a26df76a225b25
p545
I354
sV5b6ebd3a3670f7904c415b48b52388fe
p546
I505
sV4acf9a911e931833b6a45c2e539f4d08
p547
I511
sVb6366b42ae29a86e2e33ffc66cfeafc7
p548
I701
sVd994bcd11b93d14952c789a5dd82a082
p549
I979
sV8b091600ff04c3cbed387b8ca63d6583
p550
I610
sVfcf67d5c4433feefe6b9e7f7551f4334
p551
I775
sV0ed22c41834a89b0905341a4883bcfd8
p552
I552
sVca22e0acc5f68d1f267bbf51b81b0587
p553
I950
sV6d9b4949574486ce2cba1ec127ec3459
p554
I492
sVe845d8c8aafd8ef2117cf0fa88255641
p555
I192
sV1b06d3b9766e101dc15533df16848c3d
p556
I616
sV60a2c6a678a2a724c5c98d373aff6951
p557
I944
sVc170dc195490b8952858a85fa00e9515
p558
I278
sV06ba79af09fa392b303d82c65318e94a
p559
I121
sV5ec401e31cfa49bd894f6d6e0dd218ab
p560
I303
sV331b0344fb543f42f3b75c60dbe1228a
p561
I871
sVa648524884a0c508aaa004a146496f76
p562
I567
sVf32c29c47890054822a062c48ed0229f
p563
I485
sV18822080ce0ba327984b9b945feb5a60
p564
I856
sV54bf50a3e709c0bd499f9fdca5826147
p565
I44
sVfc6e39fa6d54cfbc0109950411df29ca
p566
I983
sVd3b4ad3b4de64390657f4be37935c435
p567
I106
sVcf15776ffd663a534ebe318d8557dd61
p568
I626
sV42ecc3f7821d339fedbc42629b09c5d8
p569
I939
sV22736fd5886c4c36975dbc7bf95554f0
p570
I423
sVc787809d15f031a66e6983f52786802b
p571
I387
sV42408993aa6e20316ac21161f0280931
p572
I283
sVfd960446d2a41002d3b36f25740157ca
p573
I47
sV5c11016f3d21d673b15db9f058c90200
p574
I927
sV3d3e99065b124ebbd0bc425aaa723647
p575
I255
sVf8d61ab0f404fc886110b72321c77c91
p576
I997
sV5642b01c61afd6b54601365aedc96b68
p577
I91
sVd0c1aef3d30981fa8092bb0bfb83a0ca
p578
I594
sVc31d5ea9d36cdc33c5c454dcbbd8d227
p579
I463
sV319c64e9d5bfc047814bbdf2cfbc437f
p580
I200
sV8b26fa4076f965152d7466aca10c340f
p581
I895
sV1f744f86c927e6bae893ba6d4041508a
p582
I311
sVd423db966f0cbec26e75e94f3327eb4f
p583
I817
sV7a3570a25df3d87f6520bfe770473d58
p584
I445
sV2e012825c5cd20377ff04d932b4c9f79
p585
I686
sV1cd3e112da66cae74fd0860500aa2e6c
p586
I267
sV0a6a21926fc12087cf67f42c6877f317
p587
I220
sVd6ca7517247f1327799c0ae1aa84df9d
p588
I159
sVd1737922fe92ccb0dc37ba85589e6415
p589
I16
sV37fce597a1af22c2d2f5e82fe857d69e
p590
I842
sVa2cdd00871aaf968096ce0b881f989f9
p591
I315
sV11c00e995d6b314daa729b6ab9b9112c
p592
I88
sV1b737c5bd2a1bbb11388e502a2c5447b
p593
I490
sV915de352f4802b7aa8929057617b7cdf
p594
I707
sV0f1be9ba74fde58b799ab67255ede9a4
p595
I290
sV2504fa7eba54ebb09325c693bb283afc
p596
I394
sV17c9abc98612563fd4c9d0603e67077c
p597
I758
sVbcaf616e0c24ff1e1a7d2887d2e76b54
p598
I664
sVbf0d9091553cd99e68fe92b23966e140
p599
I970
sV3fc15c3a17757c4cfd76120ad9c86583
p600
I421
sV9bd2f3e32c7933d6da98f750d4b5610e
p601
I606
sV39e9bf19fff66fe64b1cf37eb54c3550
p602
I820
sVa0769ccf824869f6a83635e46e027531
p603
I697
sV17c72c26cc226ed1106689a06cfe5bce
p604
I711
sVa3e48fc07f9cfbdd316fe85f2a20e367
p605
I347
sVf6deb5e37fb5243dce6c6dd98ca7f06c
p606
I807
sVb21a106264cbbe4c965c0dc69814512e
p607
I958
sV49fca5f045bd015986d37db8acfd790d
p608
I361
sV30a7951cfc21240e8c46b2d079d292e5
p609
I33
sVe6405d8d7cd84701353826094b9f12e4
p610
I781
sVc09719633da4f9caf88ff79137ef0b17
p611
I566
sV151f60a5367a01a69260b3542570ace8
p612
I726
sV1a3cf45d9e12115c358b461831eff1c8
p613
I222
sV46a40df406c1dc0f60873ecc5b3a9655
p614
I903
sV98e13ad4b495b9613cef886d79a6291f
p615
I737
sVee7629218598ff9d5703839be543e518
p616
I390
sVbe8b38e3002bc1f262025751cd4b081b
p617
I669
sV85eb675b4027c82bcc27b473c5eac646
p618
I800
sV3e0c28a1f4b9c11b809ff21dbb920b5c
p619
I482
sVed17ada77c1b94b4fb00d126a0c2ea06
p620
I117
sVe483ac9545d8635c7a0caea33ebac687
p621
I401
sV64249f81378907ae7cf65e8ccb4bd8dc
p622
I557
sVb9eaacb0e1cbd15977028eb9788189c6
p623
I900
sV79e8927d91b1e7bcd673b5e5c6e0191a
p624
I916
sVdafaf6c02d6acd904697a58fab79344e
p625
I553
sV525dab2c0e34bc398181143e4cfa5dcc
p626
I966
sV7a7c768000c27549518512577ed58522
p627
I909
sVc639a76f31c41923cd91d23875a72264
p628
I225
sV1ce456323441ffd6a3b29a98cd5fc7fe
p629
I474
sV6e5c10246156ae5bdcd9b487ca99d96a
p630
I2
sVcab9c9344919c3c5e7694f0d8c0ac7e8
p631
I449
sV8d6e2b70ed201b3200baf07f419a6986
p632
I788
sVd8577ef912064efc080e4849c812a96c
p633
I455
sVf57c49e2a0332e31fa984b47237fcd90
p634
I261
sV470f6a8d723777d991cc2d4da6585d88
p635
I840
sV82417dd48253355e43dec3a7e1c2ecb5
p636
I258
sVa39197b170fd1dc079463be99c27c5cb
p637
I821
sV136b844f49c4eae017d6cabe8ca03b9d
p638
I137
sV1dc73580d149c88bd976bba1c4a02b12
p639
I596
sV7d0acda2d68c78f983deb384c7c50477
p640
I496
sV17204fa7e500e3ea4efb3e0f801669aa
p641
I402
sV6b1ee996b1c87cd54c6cd92acbef9aac
p642
I112
sV7f28ad5e6edbbc3625bb38a7f783cef3
p643
I600
sV0f57223e3bbd5222d9881a442aba0d03
p644
I120
sV6cfb6df7e33b477a19562916d7fd61a0
p645
I635
sV11d85e466ffd31666c7fb9ad1dc215d3
p646
I602
sV41f0aeca9611be7d01783f8a6fa3f35e
p647
I538
sVb8b47c762f79affe6d939c450825aecb
p648
I640
sV4bfd68307485af62d745e0a7950f0b6b
p649
I828
sV38d72c692c25ba828c02963a9b17fc72
p650
I57
sV725a917d89e6202e11bc6fb0a575b2a9
p651
I294
sVc48af0482562edbeaf10cc84afb17288
p652
I982
sVb2542125596abf542ec5f863adbdf97c
p653
I541
sVe9b44e6f8e12e6b241e01645278ce2a4
p654
I562
sV22114d1931ab6a56676a692081b5d789
p655
I652
sVe9920062e07ee893c10e38d0259665b0
p656
I316
sV8600370dac7555a25d417e7f2dab6d1b
p657
I671
sV1569bdfd04db2539274ccaa530667da4
p658
I740
sV537e06890f6a86dbb70c187db5be4d55
p659
I43
sV115e4142c28e8721297bf8d9787357db
p660
I333
sV106d5613f7374214df94c720b8768657
p661
I226
sVe0d2b155350b5a0b580d5b8432943b23
p662
I741
sVd6968742012887d526c9e26ed6e35fb6
p663
I905
sVb2d16e8bb0e9470fcb2ab15c07b9b4f1
p664
I444
sV5104a9211fa037c2e775da40974e4857
p665
I297
sV1067e078446a7897d2da493d2f741316
p666
I19
sV779036f24761478b91459572bc90a71d
p667
I768
sVf048a37843f455bae4106cd82632f1cd
p668
I692
sV27955c11c6404c647b9846af9e5941fb
p669
I291
sV614e9c02bcb1b7feaff502d4c1203c47
p670
I305
sVa9171b0aec2df7c31f96da798343d7ea
p671
I35
sV7a5b7f2eafc6933d398cc31dd800fe4f
p672
I934
sV6f1aeac17da650a577a87ac3a143a5ec
p673
I307
sVef349d064ed1eb9d92e7107cc8d90967
p674
I447
sV77a2ec69c31af35bad629aeef64322d9
p675
I190
sV1cdd9846624ec5bb3797e05479c76237
p676
I573
sV614d589dc9b706652ebc2f86d31e19ba
p677
I237
sV6a6c75bdb10af785bebd2a09a53fc4c2
p678
I398
sV0cff4a2a147d81e51ae8a91289e129f7
p679
I334
sV4b01241413ea168f704545a8aec899f7
p680
I809
sV03a4fc35175366d742f77d25dcbc570d
p681
I55
sV7e5362a139b57d457628cdb60cfa42e2
p682
I920
sVb885be05f0ac1945ffd35f5d37748724
p683
I386
sVbe1a7235af23dd77d0d1029dd5bfa5e9
p684
I59
sV1f5630fb3e0dc7d307fa82a6b63a03a1
p685
I110
sVc839beb19be147b5912bf3f6a3ce37d4
p686
I811
sVad87505a08c0526bc5c16796f35443eb
p687
I235
sV08abda736d77d880c4e17fbba5db3985
p688
I51
sV124e0088638a99447f90170bc6ac33a2
p689
I682
sV251efd0354815b080d11d10dbe431e2f
p690
I312
sV964dc31a872efa33fee9af11f62e843c
p691
I75
sV09cfe06945cd849badee1063e942f28e
p692
I945
sV75f38d077366d7964c2f3bb80c3e7b1d
p693
I281
sV734a8c73513396619a99222ee79f1d74
p694
I341
sVb0cf3e4e620e0b803bfd14184b69cb05
p695
I914
sV60fd659c992c607b2560700e0e9eb052
p696
I479
sVe886277c0f0e7990a42f754842290254
p697
I836
sVa3c3d258905dd3a8f11a56b78e0d5059
p698
I685
sVedd073f8dea85637f8b7d589faa7902b
p699
I130
sVcfa86c14c312b92a7d035bd3437c2043
p700
I173
sVa9efe9226d7f79ef9b3180c384024d90
p701
I350
sVb30e2c6e6846c8d6151ac13a6ae18de1
p702
I956
sV7e22b26535b913275de0f9ff4f1d6965
p703
I302
sV8f48483ba97f360adf0b6c599143032a
p704
I116
sV05a5fa4dd06e3f64d73d88d7a6885a51
p705
I331
sVb45989f09806eb94d52e56a8b2dfa85d
p706
I244
sVd4444244953f1ba2045b446e0b40543f
p707
I965
sV6e249f377fd507282ab0caa8976fff46
p708
I188
sVd4e72926d837c6ca5849c62cead367b4
p709
I82
sV89f817b1971a085d0e216a1cb83394fd
p710
I926
sV346e4a70270dcce272e712f7c2c7e6f3
p711
I720
sV4f5ef25b4eacb90c0fc776c027dfaa22
p712
I424
sVb97117e40a460ef017b068d4db1dc078
p713
I364
sV9bfe14590a4063603ee4672823b129ac
p714
I907
sV89b262f811547861d9cccc374be275d0
p715
I656
sVf9221aa0f03037660762dc6fa397bda3
p716
I102
sVe779ec5d9ffdd51bfc2c68ac38cf6ab9
p717
I851
sVb7ac9ec799257e346e47294cb2539659
p718
I824
sV87a58445c97571f789438ae88987b222
p719
I739
sVe907a1cc20801be120f21a921da362a9
p720
I471
sV38e613cd90ba43943211be10168ee175
p721
I343
sV4e01f6c2f4293a7f495bd6ccffae552e
p722
I605
sVd9039c43983f6e564b1482b273bd7b01
p723
I45
sVf35186d124ddcc40fd675605e166c839
p724
I823
sV7533621a882f71e25173b27e3139d83d
p725
I66
sV0ab025a65730ab34eb292bd1dcbf67fa
p726
I427
sVf20debdbfedc6391c7fa9cd96c4f255b
p727
I480
sV95eb895677468db18d79bd4ccd4bc838
p728
I755
sVeaf9eaecc344f0d3157ad6d5d75e1064
p729
I747
sV7b73a97a2516d3c33de0d452f21d4e79
p730
I231
sV6f76c880452ea5d60dff2e2f2120a045
p731
I721
sV6d7e139b4582f175780c6e776311ccf6
p732
I604
sV04d886cd623c763ef8964c0884f8c9e0
p733
I487
sVef2f7e1e22f559fb7fbb04f15d75655d
p734
I782
sVf8dd54a9b5fb3f3ee530ca84a2f51de3
p735
I778
sV81b7ada1380b6c296ffaf8c6f3b98bd2
p736
I716
sV792c0f1ad1431397c65db3e69b770928
p737
I213
sVee89e559c627af61e8730ea4ad7011d6
p738
I618
sVccb6df3a26c2b8aa55d843a1364a2a2b
p739
I488
sV324631e1aacaa41bc4475f879756bbb6
p740
I83
sVaa9e353a6b43b125cbc89cb751090a9e
p741
I22
sV453d46f8113e1f2c730c2ee5a4469c71
p742
I234
sVcc2ec89609836a875608c52109dcb5ea
p743
I125
sVb27a8b1544b9efd0dd0476dbf197cf3a
p744
I571
sV46c49418a0b7f54cc08f32604ecb0cfa
p745
I397
sV094d02419c70eb5a8fb3128507317a5e
p746
I368
sV230e9d6103f4679516d8c5254a0a1887
p747
I551
sV6622a56323ab90abcace1f529cd7c95d
p748
I822
sVa030e0a821db470bcb795764a7857505
p749
I574
sV37c44c819d8f48955183480b835bf9a3
p750
I651
sV19bc99f53efcaf4dd214658b0fbaf1e9
p751
I380
sVef6323ef586350bb4f8dc78d924e856a
p752
I338
sV2fed0dd25d9dbc099ecef14db8a102be
p753
I767
sVc0999793234144881eeec9cecb1c4b8f
p754
I718
sVf948a6d058c0d51c2b802734f5db9d74
p755
I860
sV5c7ca9f5239f481c0f35f3faaff188bd
p756
I154
sVa8738cf1598197dc0c3aa3c0b213a90d
p757
I857
sVa156e201f65d6c1d0c821055289b951b
p758
I882
sV9ff727dfaba99409de73aed971142f1b
p759
I865
sV7422eabb4c6c3448c000f7be84e5c1b8
p760
I148
sV3ab7c26842f970df4f7dc555dffc387d
p761
I719
sV2c3b41f588fbb5234d8a1e885a436cfa
p762
I162
sV080d92dee83dd1161c871d6f4e8b71b2
p763
I734
sVc23e16813063cb363bdd2904bd20d2d0
p764
I911
sVaaa491280346f918ae482178203d2a7b
p765
I730
sV325c9db6be07ea0cff04041bacb8ac0d
p766
I801
sVb1b1852c416d78d7765d746cb1b8921f
p767
I433
sVdbbb6b990661b1e507a387f019bcb1a0
p768
I13
sV48da4647746078e946b008a561123653
p769
I65
sV723101619ae981f0c9e762584b170ab8
p770
I329
sV66ad3cc67d71f41d549eef8b40ed26b9
p771
I61
sV11fac16c9f9656260f4075e1fe355fa8
p772
I995
sV9402236a97ffde27afb1d51bae23876a
p773
I638
sVef015bf96d2c7f2d2923e65daedd0b33
p774
I620
sV71f109d443328a6efa7c8b76b0cb2a6c
p775
I653
sV523e34563b51f2fdefbe8a1403a3c307
p776
I208
sVc76c699bbebafa044318cc4242de71b8
p777
I140
sV3d46c1ae1988d7ce646081408c421675
p778
I115
sV05e0008676a65315bf229f0e2cb2e27f
p779
I465
sVd1a2b90074805afd6543c9e08d47d46e
p780
I374
sVc3d876f112646134464b3b5635c15549
p781
I342
sV108a552296a79e57a5343689caeb9d9e
p782
I878
sVc34a107437f0717700f542ed9e684f21
p783
I772
sV61cc4d884e6cfafed2000b1282db7cdb
p784
I843
sVf07272f8ceb99db4c1a7cbbd9ae7b75b
p785
I429
sV8064a8ffe2fad03f2906f6dcc6a7cdf9
p786
I938
sV0809e409300e8e24184fcd6161434204
p787
I209
sVe90f2ded843cdb2efd65ef47d9fc8029
p788
I60
sV89de999d79807e556019fdc740f31790
p789
I761
sVc3cd45f4381ac371507090e9ffabea80
p790
I383
sV1331e8dd53e0ac1de44f92a492b5d240
p791
I984
sVd17eb94b9edc5b29b1fffee7143a41f6
p792
I612
sVd0bb1f50091eb583b77641d698cb9ba9
p793
I242
sV39d5c396232d14a9387e1b394323c1db
p794
I992
sV8da58be4eb691ae8f57d2f8d29c9f406
p795
I613
sV0d16d096ef1256ba3fdd6df87f8e98fe
p796
I152
sV32570ef6df3cd4cbb991bfab97ede7b6
p797
I681
sV1b4e3055c8e18ac6eefdb28534dde7cf
p798
I714
sVdd2a2e03e2f73e1113ed3836bf2d9ad7
p799
I107
sV1795f18f06f1fcbc6fd35dc577df26e1
p800
I863
sVc55f41447269371b42b287c8dadc0479
p801
I426
sVa5b9c4d7d495b085331f45ac21a34369
p802
I245
sVd40cbb8de6baa61519af1f24e874b63b
p803
I621
sVf6a30548f9232c2888f78dc605574ef8
p804
I202
sVb37f269315c8e5b199752d04e62f6ec5
p805
I962
sV145890e44cab8515300fe58471452f95
p806
I246
sV12c0a30e296faa0dfd422fe918d7d4f4
p807
I77
sV3e1edc05ca35eaecc90766629d22d078
p808
I160
sV37118edb128e2378bd241faae73ce795
p809
I695
sV7ef7f0f053026c9aa81c3e6f9b2b6d15
p810
I644
sV7af2e2e04e79dbd792fb78acaddad3dc
p811
I784
sV498a37dd8cb25ef34ab8ad191d014d08
p812
I765
sV5992e533d4e08a0b71ad37930b301f69
p813
I677
sVa936cd07895efded15c36140a62a78b7
p814
I298
sV47d895a9b0e381e28a846d005fdbb84f
p815
I996
sVe7df347f93f647948e29100379ef1176
p816
I365
sV7badebfdf3ec9c7d27839c733493bf63
p817
I866
sV78f54823b0818f5918017297a83437f7
p818
I852
sV2ad9044649cd6a842a822b1870509ad3
p819
I813
sV2b14eec3be2c4d669ce5949cf863de6f
p820
I119
sV74b9cfbfbdbddbed8828ecac30c9a126
p821
I448
sV7ade1046c435e61cbccaf3d8a1391d6c
p822
I528
sV9cbfa7a31ae9dfba70b4383636d99788
p823
I36
sV734d5e65ace0b8f86e87576fe6b59a89
p824
I684
sV42931f67f3661ec1b33d6b7e42754d9a
p825
I699
sVa4e0096175a7f299d0f6e67edf143891
p826
I108
sV2f1ac1463ec2b0212f337801d176951f
p827
I157
sV2febad7616742e0bad1ba44f5ac5199f
p828
I411
sVf38b0bba6637eff234382dc2e9eea269
p829
I987
sVc671e697434aa710888b0632eb2c6145
p830
I105
sV94e87282640f0a3bd6835ce386618a55
p831
I416
sVe8be88fd4ed2b9a12dca618d5e850ae9
p832
I308
sV3ca41875dd95b256a1ecc858b9992909
p833
I470
sV9d9e32a8be582241565541ec8073a1c8
p834
I943
sV0e9224b92761e500a713e22bcd9870cb
p835
I550
sV436d6c9939ac3dde353954a0d3d8c49f
p836
I667
sV2645da97a81bfe1f4dbb98f3f4e167e0
p837
I534
sVc48be4d7b7f3329719439b7b23b52ba9
p838
I693
sV984bafb90a226f871b2903ed61d0ad42
p839
I948
sV508b3b1c8c69b79485175bca9e9a2e78
p840
I848
sV0319c8009f00e29f3d434c1dd1d25e74
p841
I279
sV501b52559fd21b32808030a0f4fb1a26
p842
I29
sV3b8355616c4cb1a7b8b1c0731d3fe720
p843
I377
sV39af186286605963b1d75543e1492c61
p844
I93
sV25297224cfcfc41e9922189511a74fed
p845
I198
sV524a48d3526730bec7262442b3aa9a94
p846
I558
sV7bba7f54c0f2e6e590259e8e53d78ca4
p847
I495
sV7a6851a5980b93a8aadb509a56a98d35
p848
I296
sV929baf387cf71d98482a9743ab8a0890
p849
I549
sV56ca0a9cfdadd22aafa06f075926ce68
p850
I628
sVe5e91eb9c964643e39094535865f391e
p851
I163
sV42339fa15b8352095da128f1185dc7ca
p852
I358
sV2e1d580159f72dda2b9669c1141b6e29
p853
I698
sV4159dc0053e9c2ef4d425fa5bea5acd1
p854
I304
sV212d49682ce1ea3837814f10d346fd71
p855
I266
sV5c2cd66e6232fea5be780aed601ea603
p856
I446
sV8262449f40e9117f7a9ea49b4a333993
p857
I15
sV634c91aa29a89006ac2b021fa7c2ec8f
p858
I536
sV5504f47c97c66fb67f8d3110f3766cdd
p859
I925
sVaed3fc257f3137f678c0d760c41de0f8
p860
I648
sV507828f2152ded632d13342d25764fcd
p861
I989
sVb0906eee444fc114575b0c0d9fe64760
p862
I923
sV20ae02f6a3592ac6bcc4e1475aee9cd9
p863
I184
sV21b4fbefbf8fdbdacc44986b13b12296
p864
I812
sV1d2a8a94b70204bf950346519bd04032
p865
I660
sV979ae4a96fa9476dfc446966faf36210
p866
I957
sVd69d4e111612dd12ef864031c1148543
p867
I367
sV797105d8150bde36ffbea5f29f0e3c36
p868
I484
sVa18b42875cfd943d9fd88383e6ea3904
p869
I319
sV62b685cc0d876c3a1a51d63a0d6a8082
p870
I4
sVddf9c041e474481f83f1aa6d5cb42bb3
p871
I524
sV3dda6fab2fd4bffdbe82da4696c01edc
p872
I886
sV0a6ba20b892ed61df751420934d1ab51
p873
I53
sV638ed61433b8d4a30d9498bd516d65cb
p874
I265
sVbce75205499f22e47b0c1aa94e09131c
p875
I494
sV2d94da7b0535231e6675cbf52a7e7453
p876
I206
sV407ffad8d323810a4712d1446d5ad457
p877
I336
sV2e665171395351de4d7e0df3ecb880d5
p878
I476
sV4be24ad06e3adcde1c5a36a00701cc10
p879
I452
sVb6ea5498ce80f151f5334f675fb10ddc
p880
I887
sV9eb50a43b55760682f07e9f0785226ca
p881
I537
sV7ef068978f3c84c9270d78c138e26e83
p882
I955
sVa742cf7dd3b2627d83417bc3a1b3ec96
p883
I317
sVa6c931997048f055beeefb1a98f480b2
p884
I593
sVc71cf1f472cf9b4b4517ea23fb6f2c91
p885
I40
sVd2bf23e65f7423b61549cf9e94f00f75
p886
I543
sV4c4362be5604f9054c2d6d4f82f9d24e
p887
I252
sV0299c9da66d8302ccb5f9d43b877150e
p888
I794
sV7f71aa8f32f72b9437f9e2dd912a493a
p889
I572
sV11fd7aad3722ef1aa1f6950f0414590f
p890
I436
sVcf0c6e7a360f089951cb0561324bc199
p891
I917
sV045f9f5708f6896535892b85a81d8151
p892
I129
sVb7de4cb395920136663132057fa89d84
p893
I5
sV0b3340c23cee773e811e7220417b4ed8
p894
I977
sV43d1107f57aecbc16ad4f02d7b1167be
p895
I760
sVd959561ac12b0410f139756a3234db9a
p896
I396
sVd23f9a9e6b9f6003f26017bda6dd1cb2
p897
I270
sVf9befa151e37ae370e327497d4d99bec
p898
I912
sVcc9f025e89487efb14bf6b0cac286ef0
p899
I247
sV4e8a439d7b58f88f4f99e322c9ca9b67
p900
I355
sVe60c21f15a9c00f6ab95752a37b8a451
p901
I489
sV93e03c5179b8f3229fc1c63c0f75d11b
p902
I177
sV7913f8c30d42ad867270cbefad3f6442
p903
I662
sVc0b1ad887c63a00bf641d0e763f8f78a
p904
I373
sVe50d99e3da5ad420b1c2eb06309ad061
p905
I590
sVab8c9250b384ccd4867aac5498d9a78f
p906
I84
sVa515c29de8a1b732b46e4a5e3955a07e
p907
I785
sV20c31c143f487c2bf3efaa4abd3d7816
p908
I523
sV834c75a47db66706b9393251b39ab8b7
p909
I389
sVe6472c7237327dd3903b3d6f6a94515a
p910
I1
sV1b431b2ef64b0b5ca12dfdf471770e93
p911
I500
sVebdbac7c1a558ca343cd99121e6e321f
p912
I855
sVc7469ee4e1546cfb4d21c81a8e89c445
p913
I236
sV2983e45f7e0ad87d677dacd13e362785
p914
I86
sV6d389fbe372d4d30b17733caa9370f95
p915
I703
sV9a4bd77b11960e218c6d7e8997ebe56e
p916
I555
sV1cf715fc75f260eb801df7bf967622a8
p917
I166
sV03692ba5a7ae5dde3f3ffb1eae50e1d4
p918
I859
sVa21c0ea7f452539ee52293a199e40236
p919
I99
sVf5b4f30a5e431fcea734cea1d5e740bb
p920
I717
sV526fbd95194b045bb33cbfd814e64214
p921
I663
sV4bdc3d8c1aaa90d997ce2cb77680679b
p922
I32
sVd399821d8583b8421a55370c6eb15f6f
p923
I30
sV8c85cb70eac9eef16071f95036a76f01
p924
I798
sV8fdba346661a10cb46021cb4a2c01ce9
p925
I980
sVe037c4d24a923a1ea9deb04a2a95142f
p926
I928
sV8f5a9c893f6d602f4953fcc0b8e6e9b4
p927
I3
sV859120f239c832580e6e4f0730db2f2c
p928
I738
sV18464b5400971c49bfd12a59c5477174
p929
I131
sVca8616b5b99dca1d7a713412ae9e3c32
p930
I762
sVd12f4c3b61d726c5b7f74ffda19ad9ce
p931
I182
sV6d5ac8b50cd44c436e6ccb0b35479c59
p932
I702
sVb2c4260c7ac8da67dedddf5053e65464
p933
I521
sV8128a59a1646a554a34a76e5f1b77b9e
p934
I78
sV316f6031790fcce559594879e22fa9e6
p935
I345
sVf52612ad89c61a21e84172f0af0d4436
p936
I332
sVadc78551023267957c70b48c5c52ed75
p937
I146
sV118d149b0808ed10b770005944c87c94
p938
I670
sV4263ab41f3aa6b7619d590771f621fc9
p939
I519
sV23869bdcccdc74cb89cdbb91dabded3b
p940
I349
sV3c9fa93880997efea71b7669019a51cd
p941
I80
sV4c9a9eb75e7e73c3e5bb7ef7035920b3
p942
I753
sVad818a10d44351d1e797441492b2304a
p943
I792
sV79f317c8166e2d9a9c1abec72424b053
p944
I310
sV599a1ef33632adba92f168b4b3c12cb8
p945
I175
sVbe563466c0c0a5b295db3822c1c5e289
p946
I118
sVf854a175bb0ded36cee7f7c3ce930074
p947
I287
sVf60efa694523ff26f61ab34e4b1dbc30
p948
I736
sV52a7535b69a6efb32b26fc2433ce930b
p949
I777
sV2d384fbd4c8b82700852c62187ca50df
p950
I295
sVdc9897d1446cd1c6cbfe61181b1abbbd
p951
I223
sV82c4fff4064b74ef4333a17a20f0d899
p952
I288
sV601ad03225d7cb9a55615c91445d9b9f
p953
I498
sVd0322634dbf7c6e01bc2b58f91bb0d90
p954
I527
sV52b61f74b027c5bc2b60bf59f7ed4940
p955
I579
sV13ddb55a3a9d896b4bcdd538ee0ec067
p956
I142
sV89780008ea5afa7fff0590f27ca55fa3
p957
I971
sVffd7307e4924587b30ec014a95db1362
p958
I48
sVb07f51899c243675f853de1d3ea187da
p959
I419
sV7e77f82ffcd8bfadad6e14d1e1c13ab0
p960
I351
sV0c71a59cb70215fbf49c9dd93efaa172
p961
I185
sV3793e58c60343a3fd6846ca2d2ef3c7f
p962
I132
sV9d4e9396e7e256947ac6242aee963d88
p963
I97
sV7977d30107b81a8888b95ae909448bbe
p964
I889
sVd90f2151c55212a41a0d965198d5e555
p965
I680
sV4398a550168a2dde02ebd0acefa9e9be
p966
I221
sV940f8958f0c4d75932b4975533f4ccec
p967
I493
sV02e17b21a1814fb10336b2ee8ceb3e79
p968
I27
sV321ea6056333ae4fc11a6da7df324aa8
p969
I414
sVdc1a8b86471fd028498f61346d35f13f
p970
I300
sVa2745e4ddab320a1fde31d4bbbdbba47
p971
I111
sVbed9d5b95984a9de7d7711d4080895c5
p972
I645
sV2af94ea1c29ca1cb8003528c025bed30
p973
I774
sV30c0cca4c570c11ae411e0e80f3d5698
p974
I674
sV1eb0885296be366e78d93c4a31fee644
p975
I499
sV379e9c250a70372e5cb50b3edce15127
p976
I357
sV79021ab8a92b7f0035d5eab2b3e66c65
p977
I595
sVba8fefff7ddb5e075d59a0be6983c9d8
p978
I706
sV4f9b376a972b863bbfbdcdc8d717fa4e
p979
I28
sVed938c10056b05ed7d476d3bed075b08
p980
I504
sV2ce4ad2a77bc8190427196ea1e8cfe4e
p981
I189
sV0ab238985a49334440f05fe80a5a565c
p982
I201
sVcb8c110c47bf709e413ed0a0ac40dc09
p983
I156
sVaa0f1f324e7ae15127c3d656e4a5390a
p984
I818
sV278241fdf0e908ac3a7f7c4055268c8b
p985
I880
sVddea7b6115ca790df097611ad53d2602
p986
I745
sV85bfafd79f2d29fc29d09c92b2ce99db
p987
I194
sVb20626984bc9569c6e274dc3a992aeb9
p988
I539
sV947aa25eb460bd87a8bc8b14891039c7
p989
I497
sVb944623e2af9b605eb0cba5236ee5f8e
p990
I548
sVacddfbbc232e43b8100e3afc34f26833
p991
I629
sV7d4f285c15b11c61bacfbf8e7a49252d
p992
I850
sVa5bd6bc8ee3438115452b14005105a82
p993
I601
sV8a6ca6bd184358baf6e7de0e48313520
p994
I371
sV33effbe24efef272ebe4960962c02eca
p995
I205
sVe384b5da0ca76f41ca6d1412b984b6a0
p996
I941
sV1954f34eab7441f90365b09eb2850472
p997
I526
sV16a8f896dd88f1624349f77eeaaf436d
p998
I575
sV9e1476a1c73a31851d2b0e9f6c98242d
p999
I456
sV5e3a41252043f3b1e139a3b44a21c88c
p1000
I888
sV3e9f0fa34d67e5d61aae56776ecb8cee
p1001
I69
sV19f863ea23dc99effcb476f963e0498f
p1002
I406
sVac888923cda3b9e4f0311267be25de9c
p1003
I139
sVba82cb585bc2be6819241b2d1c900b88
p1004
I678
sV0a4de95e82c122b78494dcea6cb9f44d
p1005
I729
sV97737aae985e3fe83edebbdb53bd7bc5
p1006
I104
sV59b6a34930eebe982cb4149a1ceb6596
p1007
I964
sVf77c3aae940cc63f5b385990af34dc2b
p1008
I918
sV92ef9986d12ec39a35fcb572772e948a
p1009
I135
sVb2f322e6ea73856e1ee88bf0d08eb54c
p1010
I165
sVf7a8da66635d72bf11d493f0e0d287b3
p1011
I360
sV28c4b0bb8a8fc45433837da603bc55b4
p1012
I250
sVc224f0c13e8bb14e79409501911fce73
p1013
I435
sVd7f57128272bfd82e33a61999b5f4c42
p1014
I525
sV31323cdfe8308b88ec68ea9aad82e6b7
p1015
I825
sVad62604a358fd1e85222b735804aa69f
p1016
I642
sVe0f1a52d85de45e287cf92bdcdde9b15
p1017
I384
sV536aaedf27d13fb487c142dae8133211
p1018
I92
sVa8a0e0c5e6d7acae4754501d82ea256f
p1019
I732
sVcd078a92365061d97bec61e145a713b2
p1020
I439
sVb531b97b2c0b72472307b38b55a6d5b5
p1021
I301
sV381040570cc863b743a9fce1a6ae9724
p1022
I39
sV9aa34211110f6f33706e4201a6840c60
p1023
I382
sVd24abc331d8b47f73a369795690c010a
p1024
I95
sV9b19b9e47e668f606a0b1c8c273eeb7c
p1025
I727
sV9153d5678d7731f9ae283aba33932c1e
p1026
I191
sV67918d363385383856722272a2d3be19
p1027
I503
sVf4b4b51f4efecec912844708134ac007
p1028
I359
sVaa4450379d28de4f0792a4c21ac1766b
p1029
I796
sV91a276fdb4c7ae5ff56fd0884b5121db
p1030
I224
sV5814d3532d88d575b189bde891a91086
p1031
I87
sV984d05fbcef143bdc339564dd5eb8798
p1032
I773
sV796be9722570f448197f38368046e82e
p1033
I694
sV32396a0a600b721a4a7655d4ddcedc4d
p1034
I263
sV32ca7125de78102ba9ee144a63acc20a
p1035
I655
sV43fd90ca9d06dd61aa8f985e61f9a0c0
p1036
I147
sV87da43de5e9fc4a214cec9a6027d226d
p1037
I853
sV8b212436929412c876b5446189203feb
p1038
I403
sV4a9c49f70ac837709596c249ea366be4
p1039
I873
sV6095c6bc9258cd22ca92cdb116c61684
p1040
I658
sV0532e99449bc0266d211c5ab9e820f48
p1041
I376
sV857d5ef4c8e0d6acf1ee55b85a623b90
p1042
I399
sV78076c3b9ba48d58fa9e415888cbd90d
p1043
I634
sV2414f9cc75adb587803781142e90fec4
p1044
I378
sV418e12099d4c9bbc60663a52b8c535d4
p1045
I744
sV7fc36f0a3db1fb381693f83ea31128e9
p1046
I210
sV81fd62181a08a24e54eeaecd1739589b
p1047
I197
sV66099ddcdc620b8f115713b516f44c4a
p1048
I588
sV776aad8c814ee303ecee9d4120df835b
p1049
I969
sVc85fc5b2d9e843533f2fa8bcaa1c5947
p1050
I975
sVc08991a5c9f0244b469b64d7b25a0d93
p1051
I897
sV980d0145474cc93d646f78800ad516b9
p1052
I666
sVa10db4590843d78c784171a107bdacb4
p1053
I54
sVd4ac73eb4e92b2183b270e9961429860
p1054
I512
sV4e0c2b0aee8d6e71d3ba9eb83ee09836
p1055
I546
sV60754f2d2667589daed8c3b116a7dce1
p1056
I136
sV0deedf33dbff76238ce386fc70728298
p1057
I841
sV2e4253fd30706e464da74fd87c541fe3
p1058
I668
sV8118b4913673a5f272e02251b977ea30
p1059
I280
sVfbb5991b0aaba42211024545ed0c59d5
p1060
I437
sV9fb89dd6389267ed37abbd8d78efcd6f
p1061
I425
sV4414b04ea8115e64639b64b73737036a
p1062
I149
sV6238f72f34351d187b082d37a1b68e97
p1063
I791
sV3734dac511776b0990e90a94d71c8251
p1064
I227
sVb209e2c4384a64cc307c26759ee0c651
p1065
I17
sV806d9e2c790f714c0af9a9d28447399e
p1066
I834
sVd74b0dd0a85f3cb271e3ef57ed8cebcd
p1067
I844
sV38b9b12248c3606e54559a4c8e4f50d6
p1068
I171
sV3bab35ac5638b81d5e0ccc11d0d1fe85
p1069
I577
sV2aa9bfa5f67ed9997ea341dee8a3a271
p1070
I11
sV955db33477af4f40004820b4aed804a0
p1071
I451
sV474fe53581c6e01e22815b41e4583035
p1072
I872
sV72db53045d9648ddb3023fa80885a49c
p1073
I400
sV9f4c66b84752a3b3f3f7dbefdc71486b
p1074
I481
sV8827a0bebfeb59b083b1894f62f86380
p1075
I759
sV7c5e4fc025b70c6540d6b0e06716b9dd
p1076
I155
sV699c325b818541f314b691b76f3238d7
p1077
I26
sVa9a44735cc7189ed019a0d383eb6d1c9
p1078
I353
sV8f1345abebd72a5db03e3305fd2837cf
p1079
I556
sV63e8c482071c22f43dd91b954e75cc2c
p1080
I153
sVc6dfca01693109b474ca13156e442893
p1081
I324
sVde09725e4303496d757ed0b77c0baee2
p1082
I143
sVc2b3f3c9d1af2bea9f0f7133359568b2
p1083
I746
sV9e0ae69813e8960d44855ef4585bb607
p1084
I460
sV35af1611db6bc8ffe0488799a5bc97d3
p1085
I868
sVfc81b75568d3655a922523cb0d77ea5b
p1086
I20
sV8eca93121ba75568e8707cbbd8109e0f
p1087
I766
sVf15b0a7043e5494216ef0932c178b2f9
p1088
I783
sV69f035007d270281a624ab2cc1d2aba0
p1089
I230
sV18b801a90df27a4ea2452b1321a541ab
p1090
I72
sV4c168ba2cf07ab943c98cada6160d2d1
p1091
I661
sVfb815a9e6fa8f5321962a2f90b0b3a46
p1092
I710
sVfb3ae4901ee8f66eed9ab6c43465a8a9
p1093
I441
sV6f63020874d0bac3287ec5cdf202e270
p1094
I591
sV444cc193f5faff07cb1a9074b51b3cd4
p1095
I819
sV5599e962719af3ccc2976855c2d5893c
p1096
I12
sV466b3f45a181e0a05972d77cadc61bef
p1097
I531
sV867bf3046143d15b9e618c8afba40025
p1098
I963
sV0181a13829b8f9a85fae15e39ad41575
p1099
I619
sV17dd8baf35198562ff9524b486f1754a
p1100
I233
sVff02723dde33dde012723b10783ecb30
p1101
I622
sV0ff0d93046667461eb044371b68a4999
p1102
I150
sV9d32b720e26a351b951c8f78f72f2fec
p1103
I25
sV82093ba2b011a4d13ecd9a3e8dcf9307
p1104
I910
sV711e35efeccf6dba7e35936ff483b26c
p1105
I985
sVc0a635e032b6a0f40ba7bc1e5ebf4809
p1106
I569
sV35f11f952ba96803a9d9e23e83e7f972
p1107
I273
sVe7023646cc4116c721919836cf77a298
p1108
I340
sVb3409ac3d1f96bfaedcb48c0dd41b64a
p1109
I321
sVbb7afc3ff625acae930d9c2b8cc73f04
p1110
I564
sVb3b0b74121c084554721cc2a60696eea
p1111
I584
sV4913ac58ea40e1811820087ddb28504c
p1112
I339
sV044573b60ce5da02f510e49f086707ec
p1113
I491
sV18cc79d7d9892af62a70c085d0182782
p1114
I683
sV34545e3e23ce49e85d161ff75309d0f6
p1115
I68
sVbabf967aeb47132007ac2dd76c204d49
p1116
I58
sV0626abea05161a6ceab79199e3e0ba86
p1117
I919
sVe0b9ecd0b7ea58b95587f9e9d6b7a93d
p1118
I388
sV23316ef7d4413cc8464648de6ac4c770
p1119
I469
sV332f095045d8ec4f442ad943e1a01d2f
p1120
I580
sV90b4a248b55dfe4ec88efe8d4892423f
p1121
I847
sV803152b1995dc7b25a121e0742dc0f12
p1122
I532
sV708b1f9f431793bbd3bf602d08cb75aa
p1123
I522
sV8a507da1e21e16db582b77c19b2fdea0
p1124
I285
sV5ba989232d0489da1b5f2c45f6688adc
p1125
I73
sV77821234de78d71c21013ec29f12ee7b
p1126
I598
sV31182737f76ef8653b0ed86d22c31339
p1127
I320
sVad3d8ddc52c7e0859b5c6c7f7949c3bd
p1128
I10
sV0c1091b0e6fcebff367ba688403f5c84
p1129
I630
sV381152a75a238372d3d475934219eb6d
p1130
I264
sVe5808a5e6cc13988fe596704428d38d5
p1131
I195
sV390d13221ebd3317f174c968a1035624
p1132
I103
sV5d50feb81c89a0e4bc3cb04fa88e9964
p1133
I486
sV08a6ce64ff416331f2838205f2f23c07
p1134
I256
sV45d1d01db6d90d7e15a1cb3cffd204a5
p1135
I959
sV2327c59ab1ee1a49eca7124ffc05d88a
p1136
I922
sV2b6d9435a0e6c4019e5ffcb53389c3dd
p1137
I37
sVae7c6a59583fd40eac4d3855316f0ac2
p1138
I510
sV1e9f6e9584b306ad34124f1faf70a7c5
p1139
I679
sVc58f63e34d0a12c27a59d758601af458
p1140
I459
sVf403f02183c46e92f0d690db49085c38
p1141
I186
sV7b392b11d691f65a71e58a3f76aaf04e
p1142
I520
sVefd6fb6d537509ab0fc98661e76d19b2
p1143
I46
sV7a3f2207e0fc50c570da9d90f2b436df
p1144
I468
sVbceb99a75e07af14a0d30676c4f85573
p1145
I467
sV9e4ef9d8a24f407bf0b355b27f0d9965
p1146
I375
sV83a5dbd2793560de8fcdeaad725defcd
p1147
I432
sVea5b7081dfd9792acc7cf176ec7cb7f8
p1148
I362
sV860769c49aadbc9dda267bc9a80d2eda
p1149
I269
sV74bc431ae127fcf8f62f0b62ad51e9eb
p1150
I409
sVb8f7dc94f85a3c19269a9340661fa795
p1151
I96
sV3f0c30deeda8b7e86188942945e46f2e
p1152
I994
sV73a021c1ebc70d8a1ae3ba0ca5642ef2
p1153
I829
sVa1e83422f637157e3c14ab88d585b769
p1154
I769
sV2af5a3cade1bbf97f4c9ddf64a74d75c
p1155
I466
sVb22ea9aca880b7d2e7af222940f69646
p1156
I535
sVfa0985234b95b419a66154931742a276
p1157
I636
sV908e2fdb7d9ac7d0d9220b60f1292c3a
p1158
I126
sV51022476bf365ede91d2da86926ef22a
p1159
I931
sVd4da529f5295859bb5c4ef8abbb0a38f
p1160
I370
sV2ec6c71d78dd9df9046ce6899ec42de8
p1161
I52
sV04d0ef6e0904b9ed58007ff9e69b42f4
p1162
I901
sV678c7c255c4cf0115d2200d0b6b97804
p1163
I346
sVeff26b3a50b7f831326f30f46471afa1
p1164
I586
sV6258f603d2df9463fd6de58f75f20cbb
p1165
I179
sVa12c733c6cba53a6d2fe8a1fdfd5a674
p1166
I271
sV15d3873fc00222877aab72c3fb2c0a60
p1167
I502
sV8cd830b9a3d0123dad1216c6b61e6c28
p1168
I483
sV67dd1ac0e7d040a5e35886697d6a9ffa
p1169
I49
sV24e97efd60ebc044c1817e6c12598527
p1170
I141
sV63ba8954e3cb79647d71eb0d56025039
p1171
I804
sV25c47e79395288509330606bca79f6fc
p1172
I114
sVc8b10a317b766204f08e613cef4ce7a0
p1173
I70
sVd1710a0b5ec069f528477674ec1e6817
p1174
I412
sV17746fc88a31d4c65d9d0c5bdf8078fc
p1175
I935
sV5a9e53e9a2d79230745af3ea227c782c
p1176
I477
sV2529098e553450cef6ba3198a1c2eec4
p1177
I947
sV7ef778d8bded67bc07b828172742face
p1178
I961
sV6edb99e28aa3385eea034d0f73b6952a
p1179
I168
sVed546d890e1df3231297794456daca8b
p1180
I942
sV16b8b11edca25cc367c1f337e3e15585
p1181
I568
sV26d69329a0f3b9abecbddd6abcb5b622
p1182
I64
sV3d721aaba32ce0115acf5ae870f09d1a
p1183
I542
sV6c20590cdc614438085a61243b661e96
p1184
I199
sV92aa3b535f48ec05903a3b7fcdafd411
p1185
I81
sVc9c33695ee2a2f818e9f1d8f7d1c4b39
p1186
I8
sV338c2724a524a39f2cbcea5cdb4a615c
p1187
I547
sV428b15018aa4b3f1300f5294b9e64c23
p1188
I835
sV44d7222de803009fdead91772ec830e9
p1189
I708
sVa621bebe105d26cd338d4c54f35f52e6
p1190
I418
sV9d14543441470f3a4b26b4291ecb8ddf
p1191
I260
sV35f7110d5915bae9ad4d49c13df134b6
p1192
I763
sV41a6f5de0a1ad6b60c40231699badb5d
p1193
I369
sV3e8be2572b8cc54d7bd75c5ed8e9bb6d
p1194
I861
sV85fc24526708c6f6116a9a09b212d3fc
p1195
I624
sVabba62a6a83113e947f0b38a79e3c98b
p1196
I799
sVfa941827e1bb92613bece9a0a4494eee
p1197
I318
sVc70dac1e7841801c3f8257de18f21561
p1198
I174
sV1ead0405d64a3f4637bcd00b3915eb3a
p1199
I641
sV53072af31d51fcdbc29dba6bc28a5011
p1200
I870
sV0ed57b5c37f43e77267e2fc69b72d9f5
p1201
I908
sV3d61dc38744a7f36140c27520060db59
p1202
I62
sV0492625ca98a35bd7d75849f6b4944ae
p1203
I627
sVd0b69919f18105a5b7b19c0cb34b12f8
p1204
I578
sVea38abfa422bf1c390dd6f2a7bfb3777
p1205
I327
sVe2dbe72cec121c609f89e4d7ea127995
p1206
I592
sVb6b016c0f2a85dbe2dbd93d33e6af3a2
p1207
I764
sVcb91d4992adf2a996e1454fb39434fb8
p1208
I752
sVa9f683f2f7a7fc38afda297721bcaea8
p1209
I696
sVb8ddc9905d78da6443a00434279640ea
p1210
I272
sV4d6b5c6a5e40542bc23eaa5beee989e8
p1211
I858
sV60daa540cc17cee6a42ab08b1c7bfb00
p1212
I639
sV205f1a20fe0ebac01902c71a15dfbc9b
p1213
I643
sV5314d4635a5d2d0ce5af039d5982b200
p1214
I128
sVb68f249ae0aeb220626960fa1934c418
p1215
I326
sV93ca21ce72df10a52c69893b7243c89b
p1216
I837
sVaed7370fbf4d746ef66259185c065cb2
p1217
I172
sVbe03b3b9e1caa5321ec40c388d7fd7a6
p1218
I461
sV546f784b992d2ba84024f41d342cafd7
p1219
I453
sV0411b25b134141100d8214ed6ec02f56
p1220
I518
ssbag1
(g105
g3
NtRp1221
(dp1222
g108
g167
sg110
(I-1
I1
tp1223
sbasS'only_train_photo_stats'
p1224
I00
sS'loader_photo_stats_photo_url'
p1225
g1
(g56
g3
NtRp1226
(dp1227
g15
(lp1228
g17
aS'photos'
p1229
asg60
g62
sbsS'loader_photo_stats_sharpness'
p1230
g1
(g70
g3
NtRp1231
(dp1232
g64
Nsg65
S'data/images_test.csv'
p1233
sg67
S'data/images_train.csv'
p1234
sbsS'consumer_photo_cover_gather'
p1235
g1
(crenthop.preprocessing.loaders
PhotoLoader
p1236
g3
NtRp1237
sS'only_train_photo_stats_photo_url'
p1238
I00
sS'operations_sentiment'
p1239
(lp1240
sS'only_train_features'
p1241
I00
sS'_base_pipeline_operations'
p1242
(lp1243
sS'_base_pipeline_only_train'
p1244
I00
sS'loader_main'
p1245
g87
sS'consumer_features'
p1246
g87
sS'operations_photo_stats_sharpness'
p1247
(lp1248
sS'_base_pipeline_loader'
p1249
NsS'loader_photo_cover'
p1250
g1237
sb.