ccopy_reg
_reconstructor
p1
(crenthop.preprocessing.generators
Generator
p2
c__builtin__
object
p3
NtRp4
(dp5
S'preprocessor'
p6
g1
(crenthop.preprocessing.loaders
Preprocessor
p7
g3
NtRp8
(dp9
S'operations_photo_cover'
p10
(lp11
g1
(crenthop.preprocessing.loaders
Selector
p12
g3
NtRp13
(dp14
S'columns'
p15
(lp16
S'listing_id'
p17
aS'photo_name'
p18
asbasS'only_train_response'
p19
I01
sS'only_train_origin'
p20
I00
sS'only_train_sentiment'
p21
I00
sS'operations_photo_stats_photo_url'
p22
(lp23
sS'operations_origin'
p24
(lp25
g1
(crenthop.preprocessing.loaders
DateTimeExtractor
p26
g3
NtRp27
(dp28
S'datetime_field'
p29
S'created'
p30
sS'fields'
p31
(lp32
S'month'
p33
aS'day_of_month'
p34
aS'hour'
p35
aS'day_of_week'
p36
asbag1
(crenthop.preprocessing.loaders
NewSimplePredictors
p37
g3
NtRp38
ag1
(crenthop.preprocessing.loaders
LogTransform
p39
g3
NtRp40
(dp41
S'cols'
p42
(lp43
S'price_per_bedroom'
p44
aS'price'
p45
aS'price_per_bathroom'
p46
asbag1
(g12
g3
NtRp47
(dp48
g15
(lp49
g17
aS'bathrooms'
p50
aVbedrooms
p51
aS'latitude'
p52
aS'longitude'
p53
ag45
ag33
ag34
ag35
ag36
ag46
ag44
aS'num_features'
p54
aS'features_len'
p55
aS'num_photos'
p56
asbasS'loader_managers'
p57
g1
(crenthop.preprocessing.loaders
SelectorLoader
p58
g3
NtRp59
(dp60
g15
S'manager_id'
p61
sS'loader'
p62
g1
(crenthop.preprocessing.loaders
JSONLoader
p63
g3
NtRp64
(dp65
S'sample'
p66
NsS'ftest'
p67
S'data/test.json'
p68
sS'ftrain'
p69
S'data/train.json'
p70
sbsbsS'loader_sentiment'
p71
g1
(crenthop.preprocessing.loaders
CSVLoader
p72
g3
NtRp73
(dp74
g66
Nsg67
S'data/sentiment_test.csv'
p75
sg69
S'data/sentiment_train.csv'
p76
sbsS'loader_photo_stats'
p77
g1
(crenthop.preprocessing.loaders
GetTopPhotoMerger
p78
g3
NtRp79
(dp80
S'input_pipelines'
p81
(lp82
S'photo_stats_sharpness'
p83
aS'photo_stats_photo_url'
p84
asS'values'
p85
g83
sS'urls'
p86
g84
sbsS'consumer_origin'
p87
g1
(crenthop.preprocessing.loaders
PandasColumnMerger
p88
g3
NtRp89
(dp90
S'on'
p91
g17
sg81
(lp92
S'origin'
p93
aS'features'
p94
aS'sentiment'
p95
aS'photo_stats'
p96
asS'how'
p97
S'left'
p98
sbsS'loader_ids'
p99
g1
(g58
g3
NtRp100
(dp101
g15
g17
sg62
g64
sbsS'operations_main'
p102
(lp103
g1
(crenthop.preprocessing.loaders
ColumnDrop
p104
g3
NtRp105
(dp106
g15
g17
sbag1
(crenthop.preprocessing.loaders
ToNdarray
p107
g3
NtRp108
(dp109
S'dtype'
p110
cnumpy
float32
p111
sS'outshape'
p112
Nsbag1
(csklearn.preprocessing.data
StandardScaler
p113
g3
NtRp114
(dp115
S'mean_'
p116
cnumpy.core.multiarray
_reconstruct
p117
(cnumpy
ndarray
p118
(I0
tS'b'
tRp119
(I1
(I83
tcnumpy
dtype
p120
(S'f4'
I0
I1
tRp121
(I3
S'<'
NNNI-1
I-1
I0
tbI00
S'\xb6(\x9b?sT\xc5?\x07\x01#B\xd7\xf1\x93\xc2\xfd\x96\x01A\xacy\xa0@cOsA\xefi\xa8@1\x04;@2o\xea@\x1b\xcb\xe8@\r\xb6\xad@\xc8\xd9\x1eA\x1al\xb3@\xfd\xd93=6\xb7i:]\xbbe<\x12"\x83<iI/;\xe9\x90\xbc:\x11\xb2E=\xc3\x8c@;\t\xe3\x89>\x1d\xd0\xd1:CE3;O\xf11<\xe9\xb9\x80=\xb4H\x08?\x1c\xb2\x1c;\xcf8?;\xae\xb4.=iI/;\x1c\xb2\x9c<\x90\xfaz;\xe9\x1f\xd7:\x17\tm<\x14r\xbb>\x82\xa1\xac<\xf6<;;\xfbAZ>\xd0V\xf4:\xafl\x8d;u\xf6\xd5=\x8d\xc0`<o\xd2\xd9>(\xcf\x80=v\xf5-;\xf5\xad ;S\xba\xe6<\x03x\xd4;\x9d\x17_:\xe2O\xb3=o\x9f\xae;-\x83\xff>\xcd0(>/\xd3\xf7>\xcf8?:6\xb7i:U\xb8\x96<\xbf\x15\x14>\\,K<\xddsX=\x90\x19\xd8>\xea\xaeq;\xb7\xfe\xf6:=\ri<\xa4\xc8\xe5>\xe8r\x87<\xd6\xff\xa3;\x16[\xf5>K(\xfd>\xe2\xd4\xf6?>\xb0Q>\xff\xd7\xa3>/\xdd\x06@\x8c<\xd5>\r\x1c\\?\xabz\x0c@\xfb\x7f\x84?%\xbe\xda@\xf9\xec\xffC\xf8\x17\xd5C}\xc43@'
tbsS'with_mean'
p122
I01
sS'var_'
p123
g117
(g118
(I0
tS'b'
tRp124
(I1
(I83
tg121
I00
S'\xab\xb9\x80>\x85"\x9f?\x99E\xd7:\x11r\x82:R\xba?>:\x00.?\x8a#\x89Ba\xa2\x8cA9\xdeK@SC\xf6=\x9f\xaeF>\x15IvAS,gBi\x17SAU\xf4+=\xdb\x81i:\xbc\x82b<\xb3\x08\x81<c\xd1.;xK\xbc:[\'<=\xef\xfb?;K\x81I>"z\xd1:\xbc\xc72;\x91\x020<7Eq=\x81\xed~>4R\x1c;\xfb\xa9>;\rA\'=c\xd1.;\xce\xb2\x99<\x81\x04z;\x85\xc5\xd6:4\x9bi<N\xa4m>5\xfe\xa8<\x04\xb4:;\xdf\xbc+>4\xe2\xf3:p\xd0\x8c;\xf0\x9b\xbf=G\xab]<pNz>\\jq=>\x7f-;\x1cI ;\xb8:\xe0<R\x17\xd3;\x01\xe7^:\xc9\x9c\xa3=2\xb1\xad;\xc2\xff\x7f>\xc7\x90\x0c>(\xbd\x7f>\x1b\x15?:\xdd\x81i:q\xf2\x93<\xe8V\xfd=`\xa7H<\xa3\x03M=\xf9\xc7y>\xbd\xcap;\x93\x87\xf6:\x9a\xbce<\xb4P}>\x985\x85<\xb4-\xa3;\xb5\x8e\x7f>\xf8\xcd\x0c?\xe5\xc1n@\xe1\xeac>\x1fS\xbd>\x14B\x8d@\x86\x9e\x03?\x9a+\x9d?C\xd0\x98@]\x93\xc9?j\x85\xc9A\x9e\xa8\xe7Fp\x07\xb3F\xc9\xe2G?'
tbsS'scale_'
p125
g117
(g118
(I0
tS'b'
tRp126
(I1
(I83
tg121
I00
S'\xb4\\\x00?\x8e\xb8\x8e?\x13\xff%=\x8d7\x01=\x99\x8b\xdd>\x17\x0eS?\x9b}\x04A$+\x86@\xa9s\xe4?\x1d\x8b\xb1>\x06\x87\xe1>\x84\x18{@#E\xf3@\xbavh@k\xcfQ>\xbf~\xf4<\xea\xcd\xf0=\x15\x84\x00>\xca\x8cS=Q?\x1b={x[>~\xb1]=\xbc\x1f\xe3>9\xbf#=\x17\xefU=!E\xd4=\xad\x86x>\x9cv\xff>\xa6\x0bH=\x08\xee\\=>\xecN>\xca\x8cS=\x0cC\x0c>\xba\xfd|=\xaa\xcd%=\x04\x8c\xf4=q\xa6\xf6>>\x13\x13>}\x9fZ=\x93\xad\xd1>\x02\xaf0=\x1aA\x86=\x92\x9b\x9c>\x857\xee=\x1f#\xfd>\xce\x99x>\xce\xbfR=\xfa\x90J=-j)>h`\xa4=\xee\xe0\xee<\x01\xb7\x90>"\x1b\x95=\xe1\xff\xff>P\xb2\xbd>\x92\xde\xff>\x10,\xdd<\xc0~\xf4<\xd2\x9c\t>\x85\x13\xb4>\xcb\xa4\xe2=\xd4\x17e>\x18\xdf\xfc>\x91Gx=\xb5\xa31=Z\x83\xf2=r\xa7\xfe>&\x94\x02>\xd9\x85\x90=T\xc7\xff>\x96\xdb=?z:\xf7?\r\x8d\xf1>\xdc\xab\x1b?<w\x06@\x89\x8f7?U\xd6\x8d?\x88\xdb\x0b@\x07\xa1\xa0?x\x9b\xa0@\xce2,C\x1fa\x17C\xa95b?'
tbsS'with_std'
p127
I01
sS'n_samples_seen_'
p128
I49352
sS'_sklearn_version'
p129
S'0.18.1'
p130
sS'copy'
p131
I01
sbasS'loader_origin'
p132
g64
sS'operations_photo_stats'
p133
(lp134
g1
(g12
g3
NtRp135
(dp136
g15
(lp137
g17
aS'avg_width'
p138
aS'avg_height'
p139
aS'avg_sharpness'
p140
asbag1
(g39
g3
NtRp141
(dp142
g42
(lp143
g140
asbasS'consumer_photo_stats'
p144
g89
sS'only_train_managers'
p145
I00
sS'operations_photo_cover_stats'
p146
(lp147
g1
(g12
g3
NtRp148
(dp149
g15
(lp150
S'cover_width'
p151
aS'cover_height'
p152
aS'cover_sharpness'
p153
asbag1
(g39
g3
NtRp154
(dp155
g42
(lp156
g153
asbag1
(g107
g3
NtRp157
(dp158
g110
g111
sg112
Nsbag1
(g113
g3
NtRp159
(dp160
g116
g117
(g118
(I0
tS'b'
tRp161
(I1
(I3
tg121
I00
S'\x0bl\x03D\xa9~\xceC\x7f\x1d4@'
tbsg122
I01
sg123
g117
(g118
(I0
tS'b'
tRp162
(I1
(I3
tg121
I00
S'\xb5\xe7\x05G\xa4\xfe\xbbF\xd8+W?'
tbsg125
g117
(g118
(I0
tS'b'
tRp163
(I1
(I3
tg121
I00
S'\xd6%9C\xa2\x1f\x1bC\x11\xb3j?'
tbsg127
I01
sg128
I49352
sg129
g130
sg131
I01
sbasS'operations_ids'
p164
(lp165
g1
(g107
g3
NtRp166
(dp167
g110
cnumpy
int64
p168
sg112
NsbasS'loader_response'
p169
g1
(g58
g3
NtRp170
(dp171
g15
S'interest_level'
p172
sg62
g64
sbsS'_cur_pipeline'
p173
S'ids'
p174
sS'consumer_sentiment'
p175
g89
sS'only_train_main'
p176
I00
sS'_pipelines'
p177
(lp178
g93
ag94
ag95
ag83
ag84
ag96
aS'main'
p179
aS'response'
p180
aS'managers'
p181
aS'photo_cover_stats'
p182
aS'photo_cover'
p183
ag174
asS'operations_response'
p184
(lp185
g1
(crenthop.preprocessing.loaders
Dummifier
p186
g3
NtRp187
(dp188
S'output_cols'
p189
(lp190
S'high'
p191
aS'medium'
p192
aS'low'
p193
asS'kwargs'
p194
(dp195
sbag1
(g107
g3
NtRp196
(dp197
g110
g111
sg112
NsbasS'only_train_photo_cover_stats'
p198
I00
sS'operations_features'
p199
(lp200
sS'loader_photo_cover_stats'
p201
g79
sS'_fitted'
p202
I01
sS'only_train_photo_cover'
p203
I00
sS'consumer_photo_stats_sharpness'
p204
g79
sS'only_train_ids'
p205
I00
sS'loader_features'
p206
g1
(g72
g3
NtRp207
(dp208
g66
Nsg67
S'data/features_test.csv'
p209
sg69
S'data/features_train.csv'
p210
sbsS'consumer_photo_stats_photo_url'
p211
g79
sS'only_train_photo_stats_sharpness'
p212
I00
sS'operations_managers'
p213
(lp214
g1
(crenthop.preprocessing.loaders
CategoricalFilter
p215
g3
NtRp216
(dp217
S'top_categories'
p218
I999
sS'category_mapper'
p219
(dp220
V861afee72eb11f65b45abc0fed322417
p221
I638
sVec4a185a4728e76b351ec7eb1a73b7c3
p222
I481
sVe2aa71ea7e46aa975a6cefa35f64d28b
p223
I640
sV41735645e0f8f13993c42894023f8e58
p224
I42
sV857aa652c82bfd91c53c9ca0385eaa6d
p225
I908
sV5bc73e6df7d8c3f210c3d4216a580668
p226
I630
sVe5b565a992e4b350e76f8fcf99d526a3
p227
I975
sVf1e9451e6f7b3a339964445b142ecbb4
p228
I917
sVa61e21da3ba18c7a3d54cfdcc247e1f8
p229
I997
sV0246857142b0b3318d5b518f05bca11b
p230
I579
sV0411b25b134141100d8214ed6ec02f56
p231
I892
sV58dc2727cd3c4e966e38d97c25a42837
p232
I343
sV7d28decc8e53977e80b7d9a05f624adc
p233
I471
sVe1c98bf7f1a044ec4df76abee5f0f5e6
p234
I128
sV81c2d2e6ad88e2d09d7f9260104f47d5
p235
I522
sV36037ab2a7c5d2c29f0bea59fee2a47b
p236
I399
sV2aef12e4b30eb35153b7654cdeb2f5a5
p237
I582
sV5e141626be96ed2253a31d5cb19615ec
p238
I829
sV04443051e359588472981e81e61b9d3b
p239
I939
sV53f240454714b223c7aaa73437c24e8a
p240
I452
sVe97ed211d28bd4ee9e975cd65b76c46b
p241
I865
sV624c1fbd75e5f99e6a7164cce1b1b8a4
p242
I238
sV7682b0f331eb4087774541e707d11d57
p243
I176
sV13018d720355f7be3325c544876e2c7a
p244
I927
sV4595bb2d17386a6263bdf79eae2b4cce
p245
I724
sVcbcdd7b2f2edb96d73cae07bb25704f8
p246
I966
sV1b06d3b9766e101dc15533df16848c3d
p247
I611
sV91f8a99bd7c5f2a6d50c04ae3972364d
p248
I455
sVcbcd513212d592e6c717d27be14f46ac
p249
I233
sV47a651c2951eddcb06e8a79d6b1f28a9
p250
I919
sVb6d552900a1b849af476e99dcbd5406e
p251
I849
sV62d134df24469cbf5509ec6b71096cf2
p252
I171
sVce9605e5f21262b82deb0c5ef10dcf45
p253
I172
sV6b3fc4bf56631914dce770d406ed8007
p254
I578
sV1729cc4d62ab0cec44dcfd6757d44d65
p255
I179
sV797f306f24780e1a24e4f063d46a2d8d
p256
I266
sVdf86259b169a78c024e4d5206d48cf44
p257
I489
sV4bb850e243db09298a0bda50f9a99c81
p258
I647
sV7a517a00e01a97380b6076b7ae9adc37
p259
I910
sVb90228c187744e99a88c01c597bdc253
p260
I282
sV0b9d5db96db8472d7aeb67c67338c4d2
p261
I154
sV50cc9e98a3d20b01a0e4eac01ac57d9c
p262
I832
sV5239c98c3c2228c0369842750684054d
p263
I46
sV72cd64f85617625498465594c074a63a
p264
I120
sV1cf642a07b4d7587d89519f8e4068c10
p265
I320
sVef20d40b528500037e37b167787ac089
p266
I297
sV9ab3ec6493d605fa0effea43b1141f6f
p267
I791
sV7b159051957a4788a872ecb307613757
p268
I239
sV9df32cb8dda19d3222d66e69e258616b
p269
I6
sV82e1897fc7e3d5f5cca27a6ffed02e21
p270
I406
sV76a7b8c8e01b7192330128f82a3445fb
p271
I970
sV0bafd514443193d057e8a60e45cb7ea6
p272
I319
sV370a9b35c74f968387f3be370fbed8e6
p273
I424
sV0b8a0fb573c92be71bc4e077aec9a570
p274
I126
sV46f0c2d3ec259176e74bd67d5d4e22ff
p275
I372
sVf44a6215f74f901ac7e326207f2984f7
p276
I698
sVe97e905f8a821f1446a1bc42f4d8802e
p277
I412
sV95dc9b4f3c3ee921254be49230a9c680
p278
I158
sV77a807f61bff3244a81c0d8f0ea0c508
p279
I506
sV456848d13f96dc522e5cf381095caeca
p280
I358
sVbd012f5e9838c9a44716c2f1caa916ab
p281
I852
sV46c8fa1bae81f16584746079385f29fc
p282
I779
sVd5d246c9d9d4e7079e5a0fc962d2f1a7
p283
I296
sV17c9abc98612563fd4c9d0603e67077c
p284
I783
sVc98786b9944c37c6a7edadc2a7f9bbb9
p285
I223
sVcb87dadbca78fad02b388dc9e8f25a5b
p286
I5
sV835a254786118d88c822b4ab68c92e31
p287
I151
sV6b078853a3262a140e5fbb6deec8818d
p288
I737
sVd024c48f43195c6c978a8f51aa46715c
p289
I478
sVd0f2082e8b795095061785ef5e8ac9e7
p290
I125
sVb4518af7cc5d79517aca4157f1614478
p291
I725
sV185d30820f746e14d4867cd6c40b6e42
p292
I665
sV5c6dccec2e084c32a67f938c9463238d
p293
I704
sVbfbe7635b18f639c254948d1b02c4822
p294
I604
sVbb69ec0a9617ec3fe72b180598d866ed
p295
I683
sV0577b9cf7d26e41800d814cb70b2bbf0
p296
I800
sVe28372ddd144d86e64a35483f8a02e9b
p297
I560
sV5baf5399ced8335c1346efd92e30331d
p298
I835
sV64c4a5d775d613d9ffd24bc6a97f859e
p299
I815
sVc722e143a8b773707686f79bf5f5250c
p300
I806
sV9149a12399c37de16feb0cd409ebee34
p301
I891
sV8b53ccf4338806ab1be3dd0267711649
p302
I16
sVc55f334138bd24e209d9c170545c7f62
p303
I863
sVd2b7068bc4e5e74ba13954559d1d120d
p304
I173
sVf11259a85cd2a26516470210420c2712
p305
I691
sVb9e74dc56199a8e6577aa8bb3550f1e4
p306
I371
sV5546ad6e8ea7f292696bec3c1c0ccb2d
p307
I116
sV9e829d1af81377f3f2108283cc083efb
p308
I992
sV2ea699ec2357be3af2b151c8a9b986e4
p309
I958
sV636e7de4b5bcbfaa484a88a470c7ca4c
p310
I507
sVf61b82ca57be7e33219f4ec8de68555c
p311
I915
sV3bf7bc10ba7d7520f86cbf914d24c323
p312
I55
sV932589de9230b697808216774fa26bd4
p313
I563
sV90ddcebc5f1df89389cbc519535e0f2a
p314
I950
sVfe7076077ae23563520d054a917e3544
p315
I240
sV8ce0dca957ae00f6870a164ead5081f8
p316
I184
sVfe05aab6eeabe8980f88e214088b9232
p317
I654
sV605757e0108c66606280905d76d50e80
p318
I347
sV767decc9bc00fab3d65e9becc8529ca1
p319
I575
sV42408993aa6e20316ac21161f0280931
p320
I351
sV0cfc69618cbbe76e0e898013fff30180
p321
I656
sV9e1fcda69b697b0dbac0fdc8eec33af2
p322
I712
sV2637547481b1d0b116843dcd4cf94211
p323
I165
sV6eeddf8fe9342325ab9996ad93284894
p324
I540
sV0c90cd639a3cb7f7b8ecff7a488995ee
p325
I899
sV9f39caedae295bf81e67463e6fd0af40
p326
I31
sV5bd8302e3234eeb4e267dc4a7db1c838
p327
I348
sV2d36cb7738bcb9b089c8d9b9fff44674
p328
I280
sV7f6d00384a19d9bdd15ff36ddbad699a
p329
I183
sVd953a9d088238cb48f488efd441d89c3
p330
I767
sVab15d581a04ed87b6f25d5aff8ddde30
p331
I934
sVf015101303ab7b240ffab71ed93f88ca
p332
I678
sVdd85ae9242e4012be8a386d37c1d9453
p333
I504
sVa7b7dd2363a6c3cf3d7c60c5fccc7244
p334
I909
sVdd36b42e307fbd7c8f2d9607a52cb791
p335
I132
sV5bcd1371394f97d7aa0aad0901bae8a0
p336
I291
sV2a4e0d2668fde3afa267d312b3a2a9d8
p337
I37
sVd1762ef0af965cfb5946ba0e209cc1c5
p338
I60
sV44736fb7de33f8ea3c34c0500e6932c3
p339
I449
sVae81fcd67b01360386eae48a4b456466
p340
I930
sV3813434aabfbad659a45f86a740cd23f
p341
I646
sV8fcfffa4e06cfe09f55215ea1a5e5c84
p342
I500
sVcdc8a6277042fdda92ba2c977459d04e
p343
I639
sV5a1f23b92187d3703bf71108b47d7565
p344
I553
sV66f8f5a9fff474db421459fd2bfb3032
p345
I897
sVb3a32ffa816fd256ff8b8ab548c5ab93
p346
I594
sV75bd804a38c8e33b79d87c74a10ea2e2
p347
I985
sVb5eda0eb31b042ce2124fd9e9fcfce2f
p348
I117
sV15cb1bfaa5e4583d5df9269942064a0e
p349
I265
sV8d9e62a4f9f497cb8c297660a3da7efe
p350
I965
sV5a002b00880a84406292a8dfe54f8c72
p351
I81
sV984d05fbcef143bdc339564dd5eb8798
p352
I805
sVf5467b66817daf3251b040c9ef2d6a5a
p353
I338
sVcf36aeba79d8e830f8353e30ab551520
p354
I342
sV77e00a2ddf0c8b994f256db73f72cffd
p355
I557
sV7926a6d7110757ff84fd6c692f8761fe
p356
I781
sVa04d15bfff8a474ff388071ff9e46a24
p357
I236
sV220d269dbafc05b4b947ce67aae0a65e
p358
I293
sV5511bb6c502eaf88b51bac57f7ad0be7
p359
I517
sV76f6d0b50ac0b1cf36eebb7e5c8f88ee
p360
I468
sV50a6b80a34192d1f0ab1ef363a7e0a3e
p361
I208
sV62826f3ae01f2ddc93b9cd28c659ab2b
p362
I15
sVc1446956537726a4cff20145b40fc605
p363
I649
sV35dc123b6f5f9ea6d7b755f21b9c3585
p364
I269
sV9d3a8dd3eeaf09f0214de38b02c9eb60
p365
I148
sVc44ea3e83ff2048561ab5c21a2d0c90e
p366
I607
sV85860e99ade732afc385111568f8e602
p367
I43
sV8365f1154ced533439de202ebada41e2
p368
I89
sV3e04672678ee02c7bb843a9d4641c440
p369
I655
sV0a6a312ce7972d52c2948122422bd902
p370
I682
sVb5d90f1b957456dfe7a3ad061efed280
p371
I227
sV1eda3a54481c40800e76bab850869df7
p372
I244
sVa17b24ca280c4e95612e3de2816d69d7
p373
I389
sV460d813aef3f598dabf7e312e0eb373a
p374
I765
sV9ab151c9cc172d42fec8cb57edc21caa
p375
I679
sV0000abd7518b94c35a90d64b56fbf3e6
p376
I907
sVfb0f7c32dd8e72883397bb11f3591a63
p377
I344
sVbaf2b718f413a41eba82a1354a82ca86
p378
I658
sV0ef623acd8e5a12b7bd5df3e38bf55f0
p379
I988
sV88546921fe21ff334e8d32e4b6929e2c
p380
I263
sVe60b02e0cfd2eea7d777bb283d6f8d4d
p381
I972
sVc953493d62b7f58e7e248ea6bbf34f29
p382
I901
sVb27a8b1544b9efd0dd0476dbf197cf3a
p383
I850
sV78d7357edb37f6769c543e3b4666c142
p384
I770
sV333d32700fc44387e634f84880fe37e4
p385
I636
sV63c3a69116cae652632b0e80661cd3b5
p386
I987
sVde132f59c216769a46da84109bf5fa00
p387
I576
sV2eb205ff26404c7eaacc71b2b71198f5
p388
I130
sV05576da68c73dab5d4b176f90f259850
p389
I544
sV6068ea8cea1caf52cbe823940c5e4875
p390
I252
sV0f603f95bdee83f8ffa9752d8d58e22a
p391
I814
sV287e23e5a3f64c939cdb8109713b25e4
p392
I264
sV8d425b08cdf4dec134bf5b714ebac267
p393
I140
sV097ed047cd8f606519a6e709ecd94af1
p394
I824
sV6754a7c08b7298e919ec2d3c6dc6ed17
p395
I556
sV782b04129d661ae064fe013aeb297ace
p396
I241
sV6fba9b3a8327c607b8b043716efee684
p397
I210
sV293a5d2579bc2eb7b20736ae2395e9e5
p398
I64
sVf01d80f465348a6054bd7a9004af53b4
p399
I552
sV1b406af9c37da4a580702e288a44c9fd
p400
I789
sVe8e46989328fdcfbc41e6663e094b29c
p401
I906
sVc80aad40b6abd065b4aefee40a2154f6
p402
I759
sVaebdbd87c7ad92ded6fb2a52ce3ae4f5
p403
I475
sVb5b5d584aa9de238d448fab53af43272
p404
I802
sVa7318e9bd83f6d32ed56b3b1d046b449
p405
I92
sVaf0cb221f9ebbfd8af1331351282312f
p406
I984
sVa7b1843113e8780eb0f881ab1596a9a8
p407
I335
sVfd1d4ee0095d41d209e23530141eaabf
p408
I562
sV91b971fec2a741ddedfe2370b899ed12
p409
I577
sV5dc993af98949c585a69a98bcded92d2
p410
I837
sV8041c36376187cdd2a42b2f126509f10
p411
I378
sVf88cd48685e019a4ea74947361ab1111
p412
I753
sV2279c1b4b458c7060354f77cef33b24e
p413
I708
sV6dffb6cf508fc0c73fc0bdcc8d0e0df5
p414
I659
sVb89e62bf8cdc98e9fb8b97d9bc627197
p415
I307
sV581396736f3da9d56c6aa4ce57048f17
p416
I924
sV4e59df2dd8eeda7d96e5db7d14cdf119
p417
I519
sVeb5a6c4c2eb6f3e2a085c477afd5a815
p418
I28
sV56a47485fe5b97a07c9b4ad82dd324f9
p419
I969
sV2a46aafb5509a067ee3d428cfa1180c1
p420
I422
sV8bc1f9d891f33bc4a05cac58b38ff354
p421
I139
sVa1cb9e0d9baa79f6ea89b23d7b9d1b9d
p422
I350
sVca8101de34cf81128524e715cd89ec04
p423
I836
sV076cbd2a0e4532eab964ae9bacd2efec
p424
I535
sV04d886cd623c763ef8964c0884f8c9e0
p425
I864
sVe8088b12da6c32b97ac8a19a047d76b0
p426
I219
sVf4998a041496eaa54b16339d4b0b3045
p427
I466
sVfa0e15022a76c748bbc5e1f420439921
p428
I809
sVaea47aba66a01cf236746e209c2b7f88
p429
I299
sVc7becdd5c4a5f8a28bdc91cfefe794c7
p430
I216
sV21167417dbc081140b0deb1951dce434
p431
I298
sV5a72de95cac7a85578ef414adb094111
p432
I300
sV84a317f6bce6e3c05dec6fb070dd7e0b
p433
I277
sV5e9eba8a0e49cd0c15d278e3d6407c67
p434
I554
sV10b1ae0a38d50b7ba0cee612d14af9eb
p435
I259
sV048ff8c9b8a4831e117e113d3cc5926b
p436
I798
sVe65c724a97d4c6d8ae9326a08891fc31
p437
I603
sV161a1a797a1e57f6ba979447a0eadf94
p438
I943
sV6c2a16187e6855c132bb496b875a4ef7
p439
I464
sVb6eede52209a5ea2842b4ce92f2574d3
p440
I237
sV1fa37642bd8ffbffd5dfffb8aeb91215
p441
I258
sVae6a7f07ee1bf1958fc029059f2fb8a2
p442
I322
sVe32475a6134d6d18279946b7b20a0f12
p443
I558
sVe304e47b1c1d5dde4fa872999b56cf43
p444
I275
sV465641627d253016ac8683943fd94ffe
p445
I421
sVdcf224ace19a395ea44882d62036c76b
p446
I999
sV1fa71e550ce840ac36a02523428525e3
p447
I807
sV3b630ec9cb6eee53b92cfac7f42e3bf4
p448
I384
sV09703fead6059562ab26a3522f738f87
p449
I751
sVfb60730bb18106e8591ad8a29a307ba7
p450
I840
sV1133f564d46b8a76c96857ad34fb4d16
p451
I312
sV36665067f02a1eefb569f8ef049f32fc
p452
I483
sV92758310b2a962b943484e8be0237a19
p453
I407
sVef41815d40545eea335bd38ddae4f78b
p454
I790
sVd2bce61e0e0079ebdc8c281e415e045b
p455
I12
sV271624e9531a410de9da61e28343d88a
p456
I841
sV67918d363385383856722272a2d3be19
p457
I566
sV8706619681cf850b3f554ffe75a891c0
p458
I600
sV82bc24a1b23b361a39c00bf2fecd3967
p459
I515
sV12c3a2f5c3299f3e3a26c192f52e61ad
p460
I150
sV11215cda1d873d587dcdf455001c1b84
p461
I944
sVd82432ca41910a345ee9591c37280484
p462
I251
sVdd6b488d74624d64a0ba4767d990da83
p463
I113
sV320cddc2d3d957c8c02031f60d72b35e
p464
I473
sV277517a143b394a4f404c2e3e34c12ea
p465
I435
sV119d9b577a2506cd7348d01fd5d0830b
p466
I146
sV19bc090c14e88401ebcde3b994e0b078
p467
I736
sV256ef52932175829b363b4df8f6b81eb
p468
I773
sVe1daf36ab7db573b577ffbff5f98056a
p469
I330
sVc3b8b8fcf45c96f9649068bb7d4e3ad0
p470
I810
sVc5b0b7c637899c3f76f9da738ef1d125
p471
I748
sVc0fcf6251a4d39c3e1ab21aee7859db1
p472
I653
sVe0af09eba42a9af0626d15c8d9505043
p473
I198
sVd1820cdaa5a813133038b747e49612c5
p474
I796
sVe6da894cf7ae0e99fe17a29c72e387c9
p475
I991
sV23fe9db389d31048a104bd4686879a77
p476
I143
sV0176ff9c2592a72403fca7904a582345
p477
I294
sV2a1ee03b449700c3a15dd8c9a505c525
p478
I121
sVfef690cb34be367eddfe2490805ba621
p479
I976
sVa2c90ad4e5ae7f1c2013c2ad57d372b0
p480
I633
sV093fbdecba7bddd18c7066b0b291566c
p481
I890
sV096ce7507f4f3678b32780d20bfab49f
p482
I377
sVb3a99b484063daa29f182224e89ec0dd
p483
I598
sVe0f4c69279ce5ae6421b39d46303554b
p484
I88
sV779036f24761478b91459572bc90a71d
p485
I827
sV95dde20058eaecb4e53e93f08d9894f8
p486
I673
sV8d2926bae27fce9f700b488934563844
p487
I529
sV25054758b3fe036c96ba03ada2336501
p488
I461
sVaf9bfbff38d178883dfcddbee76a5fc1
p489
I363
sV29351e3e25283e3c6c324f7d0904153b
p490
I813
sVe9327c69dd63f065a8352a4093f76fc5
p491
I914
sVea93653765d7b25f2068357b08508669
p492
I882
sVf19288238987b18a693e16ee23720c20
p493
I413
sV0386cfff64b663778a1d6c1baceb6570
p494
I788
sV67e232e16c6614f1a9e543d91db326d7
p495
I248
sV1a4dd24b22749ffaa3398b1b1b61c9ff
p496
I465
sV77575eb00fc09f61d55ea99b6c9cb845
p497
I420
sV2983e45f7e0ad87d677dacd13e362785
p498
I87
sVd7a3443df577b7a71df95b475a1886e1
p499
I405
sVbc9a2ff7c931ce7de08f50d429134a16
p500
I97
sV370bb26d489837132c36a16e0209441e
p501
I876
sVfbf30c3ecfd67deb4a5a772343823429
p502
I561
sVb20fcc6c65ec4cdd3ec5f5b59c3fc0a8
p503
I989
sV8063dd01666d424edde651c1d24d196f
p504
I138
sV5f60c639225516384a2b6496caa20a2a
p505
I228
sV71fdb55d23d1662c6a52e214b9d7a51f
p506
I723
sVad83b7286b71237e69196a8c3275a904
p507
I956
sV4d13da9b6c4dfa4ed5c70bbcc722694c
p508
I763
sV680db64f240a818450ea08e0decaf36a
p509
I853
sV0c28a1c6c0b742921727e0e3850802d7
p510
I326
sVe6f6c3c18136d0dafd7468b6d4965479
p511
I257
sVe99ac1cf98b9d5fa206b682b0848d548
p512
I209
sV9dabdb9265d1817435c38f5488d90141
p513
I769
sV15f3986f8eaad2cbe5cf700ee5e21bf4
p514
I996
sVb20626984bc9569c6e274dc3a992aeb9
p515
I316
sV77f81a0a8af6db8349587acefd1b533f
p516
I82
sV4c2d70526b6dce48b9785a2dbfd9d5a0
p517
I728
sVf510c42fc9e8765f19317cf2f84e3114
p518
I357
sVe4a9d8645100fae16292a6a6e2074dc0
p519
I816
sV5d460ddca5fd522ceca75feccf5ef81d
p520
I795
sV03fea70f5551838fed4d6fe32859efab
p521
I951
sVd6cb3ffc17469f1cc679548165ef3af0
p522
I719
sV4a774c61a15d65cb169d9f50238ee9ad
p523
I847
sV8b47e0cb1a5f4dc02a34ebbfe25c9eda
p524
I637
sVc81672bf988699c94affd3b30d69154e
p525
I688
sV13ff36e69fce77d5c15960ecc277cd89
p526
I959
sV781c05e464ce94eaa436401d07f2a6cc
p527
I41
sV75779b27788a2ed81680336fddd8867e
p528
I911
sV11f9faa7f2dde022e11c742fc1646a89
p529
I758
sV56d5b16222f138a23725efa0baee9889
p530
I134
sVa156e201f65d6c1d0c821055289b951b
p531
I757
sVc23e16813063cb363bdd2904bd20d2d0
p532
I567
sV23a01ea7717b38875f5b070282d1b9d2
p533
I842
sV1fb46c4a72bcf764ac35fc23f394760d
p534
I11
sV310027963da454af41523d289ce8c196
p535
I756
sV2451d781a4d2e23ee30cfd0caae3246f
p536
I436
sV612a00076aefe8c98d1df4835640c74b
p537
I17
sV65322e6138b5aaa5467cdc31a19112f9
p538
I618
sV568fca5605da0512654cb9cccde50d53
p539
I870
sVc1a6598437b7db560cde66e5a297a53f
p540
I84
sV2e6ea7edc29e01efafb7e1c22ee10c9f
p541
I374
sVe2dbe72cec121c609f89e4d7ea127995
p542
I652
sV29615d444c968e27d56581c1f94cf82d
p543
I580
sV79043887df9d409475245ca4fc3bfabe
p544
I792
sVc263bcf5f24052b8d2a26df76a225b25
p545
I463
sV5b6ebd3a3670f7904c415b48b52388fe
p546
I444
sV4acf9a911e931833b6a45c2e539f4d08
p547
I524
sV8b091600ff04c3cbed387b8ca63d6583
p548
I505
sVfcf67d5c4433feefe6b9e7f7551f4334
p549
I743
sV0ed22c41834a89b0905341a4883bcfd8
p550
I587
sV6ce9cb5c4e22f44bfca10facb5242ae0
p551
I963
sV6d9b4949574486ce2cba1ec127ec3459
p552
I644
sVe845d8c8aafd8ef2117cf0fa88255641
p553
I197
sV734d5e65ace0b8f86e87576fe6b59a89
p554
I572
sV60a2c6a678a2a724c5c98d373aff6951
p555
I720
sVc170dc195490b8952858a85fa00e9515
p556
I217
sV0ce0352a544376c6286a11d3f5910c8c
p557
I821
sV06ba79af09fa392b303d82c65318e94a
p558
I104
sV5ec401e31cfa49bd894f6d6e0dd218ab
p559
I304
sVa648524884a0c508aaa004a146496f76
p560
I869
sVf32c29c47890054822a062c48ed0229f
p561
I433
sV0e256ff13bc97e3cf7557f51870bb213
p562
I902
sV54bf50a3e709c0bd499f9fdca5826147
p563
I65
sVd3b4ad3b4de64390657f4be37935c435
p564
I108
sV22736fd5886c4c36975dbc7bf95554f0
p565
I428
sVadc78551023267957c70b48c5c52ed75
p566
I106
sV9ebb4938732754c8d5f32822ff0219da
p567
I285
sVfd960446d2a41002d3b36f25740157ca
p568
I56
sV5c11016f3d21d673b15db9f058c90200
p569
I595
sV06805366656968b37d9f145b3e44af92
p570
I995
sV3d3e99065b124ebbd0bc425aaa723647
p571
I205
sV118d149b0808ed10b770005944c87c94
p572
I877
sV0181a13829b8f9a85fae15e39ad41575
p573
I875
sV5642b01c61afd6b54601365aedc96b68
p574
I94
sVd0c1aef3d30981fa8092bb0bfb83a0ca
p575
I664
sV603575a3da76fa757cd6451f3707819d
p576
I441
sV319c64e9d5bfc047814bbdf2cfbc437f
p577
I185
sV8b26fa4076f965152d7466aca10c340f
p578
I922
sV1f744f86c927e6bae893ba6d4041508a
p579
I231
sVd423db966f0cbec26e75e94f3327eb4f
p580
I823
sV7a3570a25df3d87f6520bfe770473d58
p581
I526
sV2e012825c5cd20377ff04d932b4c9f79
p582
I501
sV1cd3e112da66cae74fd0860500aa2e6c
p583
I306
sV0a6a21926fc12087cf67f42c6877f317
p584
I133
sVd6ca7517247f1327799c0ae1aa84df9d
p585
I181
sVd1737922fe92ccb0dc37ba85589e6415
p586
I22
sV37fce597a1af22c2d2f5e82fe857d69e
p587
I860
sVa2cdd00871aaf968096ce0b881f989f9
p588
I370
sV11c00e995d6b314daa729b6ab9b9112c
p589
I62
sV1b737c5bd2a1bbb11388e502a2c5447b
p590
I365
sV915de352f4802b7aa8929057617b7cdf
p591
I621
sV0f1be9ba74fde58b799ab67255ede9a4
p592
I375
sVe7ebe508f9da517611135981595914e6
p593
I938
sV2504fa7eba54ebb09325c693bb283afc
p594
I499
sVbcaf616e0c24ff1e1a7d2887d2e76b54
p595
I780
sV3fc15c3a17757c4cfd76120ad9c86583
p596
I286
sV9bd2f3e32c7933d6da98f750d4b5610e
p597
I731
sVa0769ccf824869f6a83635e46e027531
p598
I570
sV17c72c26cc226ed1106689a06cfe5bce
p599
I916
sVa3e48fc07f9cfbdd316fe85f2a20e367
p600
I382
sV49fca5f045bd015986d37db8acfd790d
p601
I545
sV30a7951cfc21240e8c46b2d079d292e5
p602
I27
sVe6405d8d7cd84701353826094b9f12e4
p603
I839
sVc09719633da4f9caf88ff79137ef0b17
p604
I689
sV0b5cd828068acb8d8258c0a1566d2bc7
p605
I856
sV1a3cf45d9e12115c358b461831eff1c8
p606
I221
sV19d396e5456008ac6353739d5e26ac42
p607
I948
sV3e554a8117e0fef83c7b49378b2a2589
p608
I923
sV98e13ad4b495b9613cef886d79a6291f
p609
I738
sVee7629218598ff9d5703839be543e518
p610
I508
sVbe8b38e3002bc1f262025751cd4b081b
p611
I721
sV85eb675b4027c82bcc27b473c5eac646
p612
I616
sV3e0c28a1f4b9c11b809ff21dbb920b5c
p613
I581
sVed17ada77c1b94b4fb00d126a0c2ea06
p614
I168
sVe483ac9545d8635c7a0caea33ebac687
p615
I487
sV64249f81378907ae7cf65e8ccb4bd8dc
p616
I453
sVb9eaacb0e1cbd15977028eb9788189c6
p617
I933
sVdafaf6c02d6acd904697a58fab79344e
p618
I804
sV272923be3cc003a5c5c56a4cd434e85c
p619
I858
sV5d3dd4d6e3fb66689df68565b2df9f86
p620
I986
sV2dee0868ac01057760055b856e66e942
p621
I733
sVc639a76f31c41923cd91d23875a72264
p622
I310
sVfad02f33c530e6771e776bfdc614c5be
p623
I980
sV1ce456323441ffd6a3b29a98cd5fc7fe
p624
I518
sV6e5c10246156ae5bdcd9b487ca99d96a
p625
I2
sVcab9c9344919c3c5e7694f0d8c0ac7e8
p626
I325
sV8d6e2b70ed201b3200baf07f419a6986
p627
I739
sVd8577ef912064efc080e4849c812a96c
p628
I675
sVe1c88218171e0631b27861a99da631da
p629
I703
sVf57c49e2a0332e31fa984b47237fcd90
p630
I192
sV82417dd48253355e43dec3a7e1c2ecb5
p631
I388
sVa39197b170fd1dc079463be99c27c5cb
p632
I981
sV136b844f49c4eae017d6cabe8ca03b9d
p633
I137
sV803152b1995dc7b25a121e0742dc0f12
p634
I470
sV70c9035cc23844487e1754b0d58577f5
p635
I585
sV17204fa7e500e3ea4efb3e0f801669aa
p636
I458
sV6b1ee996b1c87cd54c6cd92acbef9aac
p637
I68
sV7f28ad5e6edbbc3625bb38a7f783cef3
p638
I729
sV0f57223e3bbd5222d9881a442aba0d03
p639
I85
sV6cfb6df7e33b477a19562916d7fd61a0
p640
I628
sV11d85e466ffd31666c7fb9ad1dc215d3
p641
I527
sV41f0aeca9611be7d01783f8a6fa3f35e
p642
I782
sVb8b47c762f79affe6d939c450825aecb
p643
I830
sV38d72c692c25ba828c02963a9b17fc72
p644
I48
sV725a917d89e6202e11bc6fb0a575b2a9
p645
I409
sVb2542125596abf542ec5f863adbdf97c
p646
I686
sVe9b44e6f8e12e6b241e01645278ce2a4
p647
I775
sV77821234de78d71c21013ec29f12ee7b
p648
I747
sV22114d1931ab6a56676a692081b5d789
p649
I776
sVe5e91eb9c964643e39094535865f391e
p650
I169
sV8600370dac7555a25d417e7f2dab6d1b
p651
I536
sV1569bdfd04db2539274ccaa530667da4
p652
I700
sV537e06890f6a86dbb70c187db5be4d55
p653
I38
sV8262449f40e9117f7a9ea49b4a333993
p654
I20
sV106d5613f7374214df94c720b8768657
p655
I242
sVd6968742012887d526c9e26ed6e35fb6
p656
I716
sVb2d16e8bb0e9470fcb2ab15c07b9b4f1
p657
I425
sV5104a9211fa037c2e775da40974e4857
p658
I287
sV1067e078446a7897d2da493d2f741316
p659
I23
sVa6ec99d59fa63c5cf72ae82d5859e477
p660
I941
sVcc9f025e89487efb14bf6b0cac286ef0
p661
I318
sV614e9c02bcb1b7feaff502d4c1203c47
p662
I329
sVa9171b0aec2df7c31f96da798343d7ea
p663
I35
sV6f1aeac17da650a577a87ac3a143a5ec
p664
I256
sVef349d064ed1eb9d92e7107cc8d90967
p665
I596
sV77a2ec69c31af35bad629aeef64322d9
p666
I224
sV1cdd9846624ec5bb3797e05479c76237
p667
I681
sV614d589dc9b706652ebc2f86d31e19ba
p668
I281
sVd0f76e52a73008f742614702f846c316
p669
I885
sV6a6c75bdb10af785bebd2a09a53fc4c2
p670
I396
sV0cff4a2a147d81e51ae8a91289e129f7
p671
I245
sV4b01241413ea168f704545a8aec899f7
p672
I888
sV03a4fc35175366d742f77d25dcbc570d
p673
I90
sVb885be05f0ac1945ffd35f5d37748724
p674
I387
sVb61ac06e02d163ba5c142915c958f873
p675
I744
sVbe1a7235af23dd77d0d1029dd5bfa5e9
p676
I76
sV1f5630fb3e0dc7d307fa82a6b63a03a1
p677
I109
sVc839beb19be147b5912bf3f6a3ce37d4
p678
I760
sVad87505a08c0526bc5c16796f35443eb
p679
I272
sV08abda736d77d880c4e17fbba5db3985
p680
I57
sV0a4de95e82c122b78494dcea6cb9f44d
p681
I592
sV251efd0354815b080d11d10dbe431e2f
p682
I302
sV964dc31a872efa33fee9af11f62e843c
p683
I80
sV75f38d077366d7964c2f3bb80c3e7b1d
p684
I178
sV734a8c73513396619a99222ee79f1d74
p685
I432
sVb0cf3e4e620e0b803bfd14184b69cb05
p686
I669
sV60fd659c992c607b2560700e0e9eb052
p687
I440
sVe886277c0f0e7990a42f754842290254
p688
I887
sVa3c3d258905dd3a8f11a56b78e0d5059
p689
I528
sVedd073f8dea85637f8b7d589faa7902b
p690
I122
sV1498f9c09cb2f9193af1dec17dc8418c
p691
I953
sVcfa86c14c312b92a7d035bd3437c2043
p692
I114
sV9e0ae69813e8960d44855ef4585bb607
p693
I608
sV07c511151921e268b260a2bc96399704
p694
I710
sV7e22b26535b913275de0f9ff4f1d6965
p695
I321
sV8f48483ba97f360adf0b6c599143032a
p696
I135
sV05a5fa4dd06e3f64d73d88d7a6885a51
p697
I341
sVb45989f09806eb94d52e56a8b2dfa85d
p698
I201
sVcc7b641e3e502b6d20999873b35adace
p699
I793
sV6e249f377fd507282ab0caa8976fff46
p700
I276
sVd4e72926d837c6ca5849c62cead367b4
p701
I86
sV89f817b1971a085d0e216a1cb83394fd
p702
I881
sV346e4a70270dcce272e712f7c2c7e6f3
p703
I583
sV4f5ef25b4eacb90c0fc776c027dfaa22
p704
I340
sVb97117e40a460ef017b068d4db1dc078
p705
I419
sV89b262f811547861d9cccc374be275d0
p706
I423
sVf9221aa0f03037660762dc6fa397bda3
p707
I105
sVb7ac9ec799257e346e47294cb2539659
p708
I627
sV93ca21ce72df10a52c69893b7243c89b
p709
I684
sVe907a1cc20801be120f21a921da362a9
p710
I386
sV38e613cd90ba43943211be10168ee175
p711
I373
sVc680ad1e0841f2c593e855282d3db158
p712
I820
sV4e01f6c2f4293a7f495bd6ccffae552e
p713
I661
sVd9039c43983f6e564b1482b273bd7b01
p714
I39
sVf35186d124ddcc40fd675605e166c839
p715
I693
sV7533621a882f71e25173b27e3139d83d
p716
I83
sV0ab025a65730ab34eb292bd1dcbf67fa
p717
I313
sVf20debdbfedc6391c7fa9cd96c4f255b
p718
I486
sV95eb895677468db18d79bd4ccd4bc838
p719
I520
sVeaf9eaecc344f0d3157ad6d5d75e1064
p720
I705
sV7b73a97a2516d3c33de0d452f21d4e79
p721
I331
sV6f76c880452ea5d60dff2e2f2120a045
p722
I848
sV6d7e139b4582f175780c6e776311ccf6
p723
I615
sVc34a107437f0717700f542ed9e684f21
p724
I787
sVef2f7e1e22f559fb7fbb04f15d75655d
p725
I687
sV72f1faabecc254c634629d8b29a30560
p726
I657
sV792c0f1ad1431397c65db3e69b770928
p727
I234
sVee89e559c627af61e8730ea4ad7011d6
p728
I746
sV1baa1601362296b57892febc35f6b07b
p729
I511
sV324631e1aacaa41bc4475f879756bbb6
p730
I99
sVaa9e353a6b43b125cbc89cb751090a9e
p731
I14
sV453d46f8113e1f2c730c2ee5a4469c71
p732
I200
sV79c834b88dc49e64b6cf46a7de8dc5a2
p733
I859
sVcc2ec89609836a875608c52109dcb5ea
p734
I145
sVcf15776ffd663a534ebe318d8557dd61
p735
I631
sVce345beefd404675a049d9ea520a50a3
p736
I833
sV46c49418a0b7f54cc08f32604ecb0cfa
p737
I493
sV6f63020874d0bac3287ec5cdf202e270
p738
I762
sV094d02419c70eb5a8fb3128507317a5e
p739
I521
sV14524a21e07c6c45fcc0ad0f32d78c75
p740
I955
sV230e9d6103f4679516d8c5254a0a1887
p741
I862
sV6622a56323ab90abcace1f529cd7c95d
p742
I668
sVa030e0a821db470bcb795764a7857505
p743
I651
sV1a79c79b0366512deaa5053ae501964b
p744
I900
sV37c44c819d8f48955183480b835bf9a3
p745
I845
sV19bc99f53efcaf4dd214658b0fbaf1e9
p746
I202
sVef6323ef586350bb4f8dc78d924e856a
p747
I398
sV2fed0dd25d9dbc099ecef14db8a102be
p748
I990
sVc0999793234144881eeec9cecb1c4b8f
p749
I803
sVf948a6d058c0d51c2b802734f5db9d74
p750
I960
sVd647e87c11d60b7aab9bffadf3df5116
p751
I692
sV5c7ca9f5239f481c0f35f3faaff188bd
p752
I100
sV7422eabb4c6c3448c000f7be84e5c1b8
p753
I155
sV3ab7c26842f970df4f7dc555dffc387d
p754
I755
sV2c3b41f588fbb5234d8a1e885a436cfa
p755
I180
sV09cfe06945cd849badee1063e942f28e
p756
I564
sVaaa491280346f918ae482178203d2a7b
p757
I643
sV9daa743d34f2bf6917a2ce0c1716784f
p758
I685
sV325c9db6be07ea0cff04041bacb8ac0d
p759
I490
sVb1b1852c416d78d7765d746cb1b8921f
p760
I494
sV6138560e6a8131cccdaf180dea091087
p761
I650
sVdbbb6b990661b1e507a387f019bcb1a0
p762
I18
sV48da4647746078e946b008a561123653
p763
I70
sV723101619ae981f0c9e762584b170ab8
p764
I619
sV01157144534c928d731696e57ae4cd09
p765
I857
sV66ad3cc67d71f41d549eef8b40ed26b9
p766
I49
sV9402236a97ffde27afb1d51bae23876a
p767
I571
sVef015bf96d2c7f2d2923e65daedd0b33
p768
I551
sV71f109d443328a6efa7c8b76b0cb2a6c
p769
I768
sV523e34563b51f2fdefbe8a1403a3c307
p770
I144
sVc76c699bbebafa044318cc4242de71b8
p771
I193
sV3d46c1ae1988d7ce646081408c421675
p772
I124
sV05e0008676a65315bf229f0e2cb2e27f
p773
I623
sVd1a2b90074805afd6543c9e08d47d46e
p774
I346
sVc3d876f112646134464b3b5635c15549
p775
I401
sV108a552296a79e57a5343689caeb9d9e
p776
I811
sV6a9d607ab726b28ba5e8ce3934d200ff
p777
I957
sV61cc4d884e6cfafed2000b1282db7cdb
p778
I843
sVf07272f8ceb99db4c1a7cbbd9ae7b75b
p779
I324
sV8064a8ffe2fad03f2906f6dcc6a7cdf9
p780
I663
sV0809e409300e8e24184fcd6161434204
p781
I218
sVe90f2ded843cdb2efd65ef47d9fc8029
p782
I61
sVc3cd45f4381ac371507090e9ffabea80
p783
I332
sVb05bf5018f5763c9befff759e35cc8bd
p784
I694
sVd17eb94b9edc5b29b1fffee7143a41f6
p785
I485
sVd0bb1f50091eb583b77641d698cb9ba9
p786
I249
sV8da58be4eb691ae8f57d2f8d29c9f406
p787
I754
sV3e1edc05ca35eaecc90766629d22d078
p788
I118
sV32570ef6df3cd4cbb991bfab97ede7b6
p789
I676
sV1b4e3055c8e18ac6eefdb28534dde7cf
p790
I817
sV7d0acda2d68c78f983deb384c7c50477
p791
I711
sVdd2a2e03e2f73e1113ed3836bf2d9ad7
p792
I112
sVc55f41447269371b42b287c8dadc0479
p793
I352
sVa5b9c4d7d495b085331f45ac21a34369
p794
I260
sV5b8956b46e79eedc3043e90b91ce46b6
p795
I936
sVcf0b808154edeb641c1ed8d24c7f16be
p796
I932
sVd40cbb8de6baa61519af1f24e874b63b
p797
I766
sVf6a30548f9232c2888f78dc605574ef8
p798
I229
sV278241fdf0e908ac3a7f7c4055268c8b
p799
I740
sV145890e44cab8515300fe58471452f95
p800
I333
sV12c0a30e296faa0dfd422fe918d7d4f4
p801
I75
sV0d16d096ef1256ba3fdd6df87f8e98fe
p802
I175
sV7ef7f0f053026c9aa81c3e6f9b2b6d15
p803
I447
sV7af2e2e04e79dbd792fb78acaddad3dc
p804
I799
sV5992e533d4e08a0b71ad37930b301f69
p805
I632
sVa936cd07895efded15c36140a62a78b7
p806
I243
sVf3e9e636e06138231c37b2673cc63ee9
p807
I977
sV75985813fcbf8666fca3a24c72f0c0d3
p808
I949
sVe7df347f93f647948e29100379ef1176
p809
I427
sV7badebfdf3ec9c7d27839c733493bf63
p810
I677
sV2ad9044649cd6a842a822b1870509ad3
p811
I855
sVe5d5df99917e1eb4f5c3d896b8447505
p812
I730
sV2b14eec3be2c4d669ce5949cf863de6f
p813
I190
sVccb6df3a26c2b8aa55d843a1364a2a2b
p814
I713
sV908e2fdb7d9ac7d0d9220b60f1292c3a
p815
I167
sV7ade1046c435e61cbccaf3d8a1391d6c
p816
I625
sV9cbfa7a31ae9dfba70b4383636d99788
p817
I45
sV42931f67f3661ec1b33d6b7e42754d9a
p818
I696
sVa4e0096175a7f299d0f6e67edf143891
p819
I161
sV2b6e2347b3ffb92db391caf6da7e4db8
p820
I926
sV2f1ac1463ec2b0212f337801d176951f
p821
I170
sV2febad7616742e0bad1ba44f5ac5199f
p822
I360
sVf38b0bba6637eff234382dc2e9eea269
p823
I884
sVc671e697434aa710888b0632eb2c6145
p824
I110
sV94e87282640f0a3bd6835ce386618a55
p825
I472
sVe8be88fd4ed2b9a12dca618d5e850ae9
p826
I380
sVbed9d5b95984a9de7d7711d4080895c5
p827
I437
sV9d9e32a8be582241565541ec8073a1c8
p828
I874
sV0e9224b92761e500a713e22bcd9870cb
p829
I512
sV436d6c9939ac3dde353954a0d3d8c49f
p830
I866
sV2645da97a81bfe1f4dbb98f3f4e167e0
p831
I614
sVc48be4d7b7f3329719439b7b23b52ba9
p832
I671
sV1092bc14b4ec20798146fa4d68e93896
p833
I947
sV28c4b0bb8a8fc45433837da603bc55b4
p834
I215
sV501b52559fd21b32808030a0f4fb1a26
p835
I24
sV3b8355616c4cb1a7b8b1c0731d3fe720
p836
I415
sV39af186286605963b1d75543e1492c61
p837
I93
sV25297224cfcfc41e9922189511a74fed
p838
I235
sVf45a2445c177379cd795189950ebba4f
p839
I861
sV7bba7f54c0f2e6e590259e8e53d78ca4
p840
I429
sV7a6851a5980b93a8aadb509a56a98d35
p841
I402
sV929baf387cf71d98482a9743ab8a0890
p842
I641
sV56ca0a9cfdadd22aafa06f075926ce68
p843
I403
sV42339fa15b8352095da128f1185dc7ca
p844
I397
sV2e1d580159f72dda2b9669c1141b6e29
p845
I903
sV4159dc0053e9c2ef4d425fa5bea5acd1
p846
I334
sV212d49682ce1ea3837814f10d346fd71
p847
I273
sV5c2cd66e6232fea5be780aed601ea603
p848
I761
sV115e4142c28e8721297bf8d9787357db
p849
I417
sVff02723dde33dde012723b10783ecb30
p850
I695
sVaed3fc257f3137f678c0d760c41de0f8
p851
I752
sV507828f2152ded632d13342d25764fcd
p852
I928
sVb0906eee444fc114575b0c0d9fe64760
p853
I702
sVf1ec3a37e495f4dcaa13296af6149aef
p854
I998
sV20ae02f6a3592ac6bcc4e1475aee9cd9
p855
I191
sV21b4fbefbf8fdbdacc44986b13b12296
p856
I772
sV1d2a8a94b70204bf950346519bd04032
p857
I602
sV979ae4a96fa9476dfc446966faf36210
p858
I971
sVd69d4e111612dd12ef864031c1148543
p859
I317
sV797105d8150bde36ffbea5f29f0e3c36
p860
I484
sVa18b42875cfd943d9fd88383e6ea3904
p861
I327
sV62b685cc0d876c3a1a51d63a0d6a8082
p862
I4
sVddf9c041e474481f83f1aa6d5cb42bb3
p863
I573
sV3dda6fab2fd4bffdbe82da4696c01edc
p864
I543
sV0a6ba20b892ed61df751420934d1ab51
p865
I69
sV638ed61433b8d4a30d9498bd516d65cb
p866
I199
sVbce75205499f22e47b0c1aa94e09131c
p867
I448
sV2d94da7b0535231e6675cbf52a7e7453
p868
I153
sV407ffad8d323810a4712d1446d5ad457
p869
I303
sV0df2f14bc9d3bba614930b3f5e71cc24
p870
I822
sV2e665171395351de4d7e0df3ecb880d5
p871
I459
sVa12c733c6cba53a6d2fe8a1fdfd5a674
p872
I416
sV9eb50a43b55760682f07e9f0785226ca
p873
I510
sV7ef068978f3c84c9270d78c138e26e83
p874
I893
sVa742cf7dd3b2627d83417bc3a1b3ec96
p875
I454
sVa6c931997048f055beeefb1a98f480b2
p876
I542
sVc71cf1f472cf9b4b4517ea23fb6f2c91
p877
I36
sVd2bf23e65f7423b61549cf9e94f00f75
p878
I629
sV4c4362be5604f9054c2d6d4f82f9d24e
p879
I268
sV0299c9da66d8302ccb5f9d43b877150e
p880
I778
sV7f71aa8f32f72b9437f9e2dd912a493a
p881
I818
sV11fd7aad3722ef1aa1f6950f0414590f
p882
I301
sVcf0c6e7a360f089951cb0561324bc199
p883
I846
sV045f9f5708f6896535892b85a81d8151
p884
I91
sVb7de4cb395920136663132057fa89d84
p885
I7
sV456c0f57a55084af81c46430034c848d
p886
I994
sV7db13a17742cfe28ba5f51f4a3747f75
p887
I834
sV40ae2c27e67c61170a6a8e019b2ce38c
p888
I979
sVd959561ac12b0410f139756a3234db9a
p889
I278
sVd23f9a9e6b9f6003f26017bda6dd1cb2
p890
I292
sVf9befa151e37ae370e327497d4d99bec
p891
I868
sV27955c11c6404c647b9846af9e5941fb
p892
I404
sV4e8a439d7b58f88f4f99e322c9ca9b67
p893
I408
sVe60c21f15a9c00f6ab95752a37b8a451
p894
I376
sV93e03c5179b8f3229fc1c63c0f75d11b
p895
I156
sV7913f8c30d42ad867270cbefad3f6442
p896
I935
sVc0b1ad887c63a00bf641d0e763f8f78a
p897
I314
sVe50d99e3da5ad420b1c2eb06309ad061
p898
I624
sVab8c9250b384ccd4867aac5498d9a78f
p899
I71
sVa515c29de8a1b732b46e4a5e3955a07e
p900
I597
sV9e1476a1c73a31851d2b0e9f6c98242d
p901
I525
sV834c75a47db66706b9393251b39ab8b7
p902
I339
sVe6472c7237327dd3903b3d6f6a94515a
p903
I1
sV1b431b2ef64b0b5ca12dfdf471770e93
p904
I622
sVebdbac7c1a558ca343cd99121e6e321f
p905
I851
sVc7469ee4e1546cfb4d21c81a8e89c445
p906
I445
sV9ba3641676cc717a8b65d59dac8545fb
p907
I95
sV6d389fbe372d4d30b17733caa9370f95
p908
I660
sV9a4bd77b11960e218c6d7e8997ebe56e
p909
I530
sV1cf715fc75f260eb801df7bf967622a8
p910
I157
sV03692ba5a7ae5dde3f3ffb1eae50e1d4
p911
I973
sVa21c0ea7f452539ee52293a199e40236
p912
I96
sVe9920062e07ee893c10e38d0259665b0
p913
I426
sVf5b4f30a5e431fcea734cea1d5e740bb
p914
I605
sV526fbd95194b045bb33cbfd814e64214
p915
I940
sV4bdc3d8c1aaa90d997ce2cb77680679b
p916
I34
sVd399821d8583b8421a55370c6eb15f6f
p917
I29
sV8c85cb70eac9eef16071f95036a76f01
p918
I539
sV10c73d5ae791ac8f78b2d6a70f885219
p919
I871
sV8f5a9c893f6d602f4953fcc0b8e6e9b4
p920
I3
sV859120f239c832580e6e4f0730db2f2c
p921
I867
sV18464b5400971c49bfd12a59c5477174
p922
I142
sVca8616b5b99dca1d7a713412ae9e3c32
p923
I645
sVd12f4c3b61d726c5b7f74ffda19ad9ce
p924
I232
sVf20bedea0ff8d440c21d1f1bd00369ec
p925
I967
sV20c56899ba45dee967a4d1143e5bbfb4
p926
I735
sV8128a59a1646a554a34a76e5f1b77b9e
p927
I58
sV316f6031790fcce559594879e22fa9e6
p928
I385
sVf52612ad89c61a21e84172f0af0d4436
p929
I345
sVc787809d15f031a66e6983f52786802b
p930
I279
sVf8d61ab0f404fc886110b72321c77c91
p931
I734
sV4263ab41f3aa6b7619d590771f621fc9
p932
I451
sVeef47ed8f4645412e7130f334aa53ca7
p933
I786
sV23869bdcccdc74cb89cdbb91dabded3b
p934
I290
sV3c9fa93880997efea71b7669019a51cd
p935
I119
sV4c9a9eb75e7e73c3e5bb7ef7035920b3
p936
I974
sVad818a10d44351d1e797441492b2304a
p937
I889
sV79f317c8166e2d9a9c1abec72424b053
p938
I230
sV599a1ef33632adba92f168b4b3c12cb8
p939
I203
sVbe563466c0c0a5b295db3822c1c5e289
p940
I160
sVf854a175bb0ded36cee7f7c3ce930074
p941
I395
sVf60efa694523ff26f61ab34e4b1dbc30
p942
I667
sV52a7535b69a6efb32b26fc2433ce930b
p943
I828
sV2d384fbd4c8b82700852c62187ca50df
p944
I311
sVdc9897d1446cd1c6cbfe61181b1abbbd
p945
I188
sV82c4fff4064b74ef4333a17a20f0d899
p946
I305
sV601ad03225d7cb9a55615c91445d9b9f
p947
I523
sVd0322634dbf7c6e01bc2b58f91bb0d90
p948
I442
sV52b61f74b027c5bc2b60bf59f7ed4940
p949
I532
sV13ddb55a3a9d896b4bcdd538ee0ec067
p950
I103
sVffd7307e4924587b30ec014a95db1362
p951
I50
sVb07f51899c243675f853de1d3ea187da
p952
I503
sV7e77f82ffcd8bfadad6e14d1e1c13ab0
p953
I410
sV0c71a59cb70215fbf49c9dd93efaa172
p954
I163
sV3793e58c60343a3fd6846ca2d2ef3c7f
p955
I127
sV9d4e9396e7e256947ac6242aee963d88
p956
I53
sVd90f2151c55212a41a0d965198d5e555
p957
I797
sV4398a550168a2dde02ebd0acefa9e9be
p958
I162
sV940f8958f0c4d75932b4975533f4ccec
p959
I359
sVf4102f53db11eb99ea03d896474c45eb
p960
I983
sV02e17b21a1814fb10336b2ee8ceb3e79
p961
I25
sVb2c4260c7ac8da67dedddf5053e65464
p962
I785
sV321ea6056333ae4fc11a6da7df324aa8
p963
I497
sVdc1a8b86471fd028498f61346d35f13f
p964
I247
sVa2745e4ddab320a1fde31d4bbbdbba47
p965
I164
sV3ca41875dd95b256a1ecc858b9992909
p966
I547
sVb80e69ae7cc5f7ac9fbf7d02c4af9eec
p967
I962
sV30c0cca4c570c11ae411e0e80f3d5698
p968
I896
sV1eb0885296be366e78d93c4a31fee644
p969
I434
sV379e9c250a70372e5cb50b3edce15127
p970
I381
sV79021ab8a92b7f0035d5eab2b3e66c65
p971
I854
sVba8fefff7ddb5e075d59a0be6983c9d8
p972
I634
sV4f9b376a972b863bbfbdcdc8d717fa4e
p973
I33
sVed938c10056b05ed7d476d3bed075b08
p974
I680
sV2ce4ad2a77bc8190427196ea1e8cfe4e
p975
I189
sV0ab238985a49334440f05fe80a5a565c
p976
I220
sVcb8c110c47bf709e413ed0a0ac40dc09
p977
I107
sV124e0088638a99447f90170bc6ac33a2
p978
I777
sV0ed57b5c37f43e77267e2fc69b72d9f5
p979
I586
sVddea7b6115ca790df097611ad53d2602
p980
I918
sV85bfafd79f2d29fc29d09c92b2ce99db
p981
I149
sVaa316c4ec7bdc5f6d921136f3768d1d9
p982
I274
sV947aa25eb460bd87a8bc8b14891039c7
p983
I467
sVb944623e2af9b605eb0cba5236ee5f8e
p984
I353
sVacddfbbc232e43b8100e3afc34f26833
p985
I469
sV0b4c2bdea168a99e824ae44dbac348f5
p986
I831
sVa5bd6bc8ee3438115452b14005105a82
p987
I591
sV8a6ca6bd184358baf6e7de0e48313520
p988
I271
sV33effbe24efef272ebe4960962c02eca
p989
I255
sVe384b5da0ca76f41ca6d1412b984b6a0
p990
I635
sV1954f34eab7441f90365b09eb2850472
p991
I502
sV16a8f896dd88f1624349f77eeaaf436d
p992
I706
sV20c31c143f487c2bf3efaa4abd3d7816
p993
I323
sV3e9f0fa34d67e5d61aae56776ecb8cee
p994
I52
sV19f863ea23dc99effcb476f963e0498f
p995
I550
sVac888923cda3b9e4f0311267be25de9c
p996
I187
sV6d5ac8b50cd44c436e6ccb0b35479c59
p997
I707
sV97737aae985e3fe83edebbdb53bd7bc5
p998
I111
sV92ef9986d12ec39a35fcb572772e948a
p999
I141
sV2f9835382bab727f99bfb0519a776650
p1000
I912
sVb2f322e6ea73856e1ee88bf0d08eb54c
p1001
I136
sVf7a8da66635d72bf11d493f0e0d287b3
p1002
I361
sV0319c8009f00e29f3d434c1dd1d25e74
p1003
I354
sVc224f0c13e8bb14e79409501911fce73
p1004
I446
sV1572fccaea39b4fa3a29bedec29a28e8
p1005
I826
sVd7f57128272bfd82e33a61999b5f4c42
p1006
I699
sV31323cdfe8308b88ec68ea9aad82e6b7
p1007
I613
sVad62604a358fd1e85222b735804aa69f
p1008
I593
sV0c1091b0e6fcebff367ba688403f5c84
p1009
I717
sVe0f1a52d85de45e287cf92bdcdde9b15
p1010
I513
sV536aaedf27d13fb487c142dae8133211
p1011
I98
sVcd078a92365061d97bec61e145a713b2
p1012
I549
sVb531b97b2c0b72472307b38b55a6d5b5
p1013
I337
sVd6bc1d327e1ed1160df4bdf45af5cdfd
p1014
I894
sV381040570cc863b743a9fce1a6ae9724
p1015
I26
sV9aa34211110f6f33706e4201a6840c60
p1016
I309
sVd24abc331d8b47f73a369795690c010a
p1017
I72
sV9b19b9e47e668f606a0b1c8c273eeb7c
p1018
I784
sV9153d5678d7731f9ae283aba33932c1e
p1019
I195
sV9556a2e6dd5f856dfaf77cd09fb8af38
p1020
I946
sV60daa540cc17cee6a42ab08b1c7bfb00
p1021
I715
sV94db062fa1178ab999bdd777dafec65f
p1022
I929
sV039f71509440109bf7beefdbb2f02c61
p1023
I491
sVf4b4b51f4efecec912844708134ac007
p1024
I336
sVaa4450379d28de4f0792a4c21ac1766b
p1025
I601
sV91a276fdb4c7ae5ff56fd0884b5121db
p1026
I246
sV5814d3532d88d575b189bde891a91086
p1027
I63
sV87a58445c97571f789438ae88987b222
p1028
I727
sV02c121bbdb886138684baa6863b112fa
p1029
I771
sV58e7c4947d0b9e49330756e4f752d837
p1030
I732
sV796be9722570f448197f38368046e82e
p1031
I961
sV32396a0a600b721a4a7655d4ddcedc4d
p1032
I206
sV32ca7125de78102ba9ee144a63acc20a
p1033
I612
sV43fd90ca9d06dd61aa8f985e61f9a0c0
p1034
I207
sVd567d12d5b806eff43b012fc3a8241f6
p1035
I952
sVb22ea9aca880b7d2e7af222940f69646
p1036
I250
sV524a48d3526730bec7262442b3aa9a94
p1037
I895
sV6095c6bc9258cd22ca92cdb116c61684
p1038
I801
sV0532e99449bc0266d211c5ab9e820f48
p1039
I431
sV857d5ef4c8e0d6acf1ee55b85a623b90
p1040
I390
sV78076c3b9ba48d58fa9e415888cbd90d
p1041
I531
sV2414f9cc75adb587803781142e90fec4
p1042
I496
sV1865c6252cc15427980ff0bcce390d56
p1043
I825
sV418e12099d4c9bbc60663a52b8c535d4
p1044
I574
sV7fc36f0a3db1fb381693f83ea31128e9
p1045
I261
sV81fd62181a08a24e54eeaecd1739589b
p1046
I194
sV66099ddcdc620b8f115713b516f44c4a
p1047
I414
sVc08991a5c9f0244b469b64d7b25a0d93
p1048
I808
sV980d0145474cc93d646f78800ad516b9
p1049
I674
sVa10db4590843d78c784171a107bdacb4
p1050
I54
sVd4ac73eb4e92b2183b270e9961429860
p1051
I462
sV4e0c2b0aee8d6e71d3ba9eb83ee09836
p1052
I476
sV60754f2d2667589daed8c3b116a7dce1
p1053
I147
sV0deedf33dbff76238ce386fc70728298
p1054
I534
sV2e4253fd30706e464da74fd87c541fe3
p1055
I931
sV8118b4913673a5f272e02251b977ea30
p1056
I379
sVfbb5991b0aaba42211024545ed0c59d5
p1057
I588
sV9fb89dd6389267ed37abbd8d78efcd6f
p1058
I418
sV4414b04ea8115e64639b64b73737036a
p1059
I159
sVd47d6bf350810f4999e3467c4caa5dd2
p1060
I617
sV17fd2aa530e808f512162a1e5b5bbbd2
p1061
I968
sV6238f72f34351d187b082d37a1b68e97
p1062
I546
sV3734dac511776b0990e90a94d71c8251
p1063
I315
sVb209e2c4384a64cc307c26759ee0c651
p1064
I19
sV806d9e2c790f714c0af9a9d28447399e
p1065
I905
sV38b9b12248c3606e54559a4c8e4f50d6
p1066
I196
sV3bab35ac5638b81d5e0ccc11d0d1fe85
p1067
I538
sV2aa9bfa5f67ed9997ea341dee8a3a271
p1068
I8
sV955db33477af4f40004820b4aed804a0
p1069
I443
sV72db53045d9648ddb3023fa80885a49c
p1070
I541
sV9f4c66b84752a3b3f3f7dbefdc71486b
p1071
I548
sV8827a0bebfeb59b083b1894f62f86380
p1072
I670
sV7c5e4fc025b70c6540d6b0e06716b9dd
p1073
I102
sV699c325b818541f314b691b76f3238d7
p1074
I32
sVa9a44735cc7189ed019a0d383eb6d1c9
p1075
I411
sV8f1345abebd72a5db03e3305fd2837cf
p1076
I537
sV63e8c482071c22f43dd91b954e75cc2c
p1077
I177
sVc6dfca01693109b474ca13156e442893
p1078
I254
sVde09725e4303496d757ed0b77c0baee2
p1079
I115
sV2f1ef900b16e97a4b1a1110ee74622f0
p1080
I764
sVa9efe9226d7f79ef9b3180c384024d90
p1081
I742
sV35af1611db6bc8ffe0488799a5bc97d3
p1082
I516
sVfc81b75568d3655a922523cb0d77ea5b
p1083
I21
sV8eca93121ba75568e8707cbbd8109e0f
p1084
I898
sVf15b0a7043e5494216ef0932c178b2f9
p1085
I819
sV69f035007d270281a624ab2cc1d2aba0
p1086
I204
sV18b801a90df27a4ea2452b1321a541ab
p1087
I51
sV4c168ba2cf07ab943c98cada6160d2d1
p1088
I794
sVfb815a9e6fa8f5321962a2f90b0b3a46
p1089
I355
sVfb3ae4901ee8f66eed9ab6c43465a8a9
p1090
I565
sV7ef778d8bded67bc07b828172742face
p1091
I356
sV444cc193f5faff07cb1a9074b51b3cd4
p1092
I745
sV5599e962719af3ccc2976855c2d5893c
p1093
I13
sV466b3f45a181e0a05972d77cadc61bef
p1094
I488
sV8f90e5e10e8a2d7cf997f016d89230eb
p1095
I812
sV18cc79d7d9892af62a70c085d0182782
p1096
I879
sV32d5236524615bc2e4f5679ad3eac137
p1097
I610
sV17dd8baf35198562ff9524b486f1754a
p1098
I222
sV634c91aa29a89006ac2b021fa7c2ec8f
p1099
I701
sV0ff0d93046667461eb044371b68a4999
p1100
I226
sV9d32b720e26a351b951c8f78f72f2fec
p1101
I30
sV82093ba2b011a4d13ecd9a3e8dcf9307
p1102
I904
sVc0a635e032b6a0f40ba7bc1e5ebf4809
p1103
I559
sV35f11f952ba96803a9d9e23e83e7f972
p1104
I225
sVe7023646cc4116c721919836cf77a298
p1105
I253
sVb3409ac3d1f96bfaedcb48c0dd41b64a
p1106
I349
sVbb7afc3ff625acae930d9c2b8cc73f04
p1107
I620
sVb3b0b74121c084554721cc2a60696eea
p1108
I642
sV4913ac58ea40e1811820087ddb28504c
p1109
I383
sV044573b60ce5da02f510e49f086707ec
p1110
I457
sVf41dff3ea2432580ae71232637b3e215
p1111
I749
sV34545e3e23ce49e85d161ff75309d0f6
p1112
I78
sVbabf967aeb47132007ac2dd76c204d49
p1113
I79
sV0626abea05161a6ceab79199e3e0ba86
p1114
I514
sVe0b9ecd0b7ea58b95587f9e9d6b7a93d
p1115
I450
sV23316ef7d4413cc8464648de6ac4c770
p1116
I456
sV332f095045d8ec4f442ad943e1a01d2f
p1117
I606
sV1dc73580d149c88bd976bba1c4a02b12
p1118
I364
sV708b1f9f431793bbd3bf602d08cb75aa
p1119
I369
sV8a507da1e21e16db582b77c19b2fdea0
p1120
I366
sV5ba989232d0489da1b5f2c45f6688adc
p1121
I77
sV35fc09b29adc23a8beed56f0aa3aaf37
p1122
I599
sV31182737f76ef8653b0ed86d22c31339
p1123
I212
sVad3d8ddc52c7e0859b5c6c7f7949c3bd
p1124
I9
sVf048a37843f455bae4106cd82632f1cd
p1125
I584
sV381152a75a238372d3d475934219eb6d
p1126
I211
sVe5808a5e6cc13988fe596704428d38d5
p1127
I213
sV390d13221ebd3317f174c968a1035624
p1128
I129
sV5d50feb81c89a0e4bc3cb04fa88e9964
p1129
I741
sV08a6ce64ff416331f2838205f2f23c07
p1130
I308
sV91e69b31073039c1b6fc4d387bfc33ed
p1131
I942
sV2327c59ab1ee1a49eca7124ffc05d88a
p1132
I883
sV2b6d9435a0e6c4019e5ffcb53389c3dd
p1133
I44
sVae7c6a59583fd40eac4d3855316f0ac2
p1134
I498
sV1e9f6e9584b306ad34124f1faf70a7c5
p1135
I844
sVc58f63e34d0a12c27a59d758601af458
p1136
I438
sVf403f02183c46e92f0d690db49085c38
p1137
I262
sV7b392b11d691f65a71e58a3f76aaf04e
p1138
I393
sVefd6fb6d537509ab0fc98661e76d19b2
p1139
I40
sV7a3f2207e0fc50c570da9d90f2b436df
p1140
I460
sVbceb99a75e07af14a0d30676c4f85573
p1141
I589
sV9e4ef9d8a24f407bf0b355b27f0d9965
p1142
I284
sV83a5dbd2793560de8fcdeaad725defcd
p1143
I722
sVea5b7081dfd9792acc7cf176ec7cb7f8
p1144
I430
sV860769c49aadbc9dda267bc9a80d2eda
p1145
I283
sV74bc431ae127fcf8f62f0b62ad51e9eb
p1146
I477
sVb8f7dc94f85a3c19269a9340661fa795
p1147
I152
sV73a021c1ebc70d8a1ae3ba0ca5642ef2
p1148
I662
sVa1e83422f637157e3c14ab88d585b769
p1149
I626
sVea38abfa422bf1c390dd6f2a7bfb3777
p1150
I394
sV8b212436929412c876b5446189203feb
p1151
I492
sVfa0985234b95b419a66154931742a276
p1152
I690
sV74b9cfbfbdbddbed8828ecac30c9a126
p1153
I270
sVd4da529f5295859bb5c4ef8abbb0a38f
p1154
I367
sV2ec6c71d78dd9df9046ce6899ec42de8
p1155
I47
sV04d0ef6e0904b9ed58007ff9e69b42f4
p1156
I838
sV678c7c255c4cf0115d2200d0b6b97804
p1157
I295
sVeff26b3a50b7f831326f30f46471afa1
p1158
I666
sV6258f603d2df9463fd6de58f75f20cbb
p1159
I166
sV4be24ad06e3adcde1c5a36a00701cc10
p1160
I391
sV15d3873fc00222877aab72c3fb2c0a60
p1161
I509
sV8cd830b9a3d0123dad1216c6b61e6c28
p1162
I697
sV67dd1ac0e7d040a5e35886697d6a9ffa
p1163
I67
sV24e97efd60ebc044c1817e6c12598527
p1164
I101
sV63ba8954e3cb79647d71eb0d56025039
p1165
I709
sV25c47e79395288509330606bca79f6fc
p1166
I123
sVc8b10a317b766204f08e613cef4ce7a0
p1167
I73
sVbbb5bf50c7a534061c69c9f75e97411c
p1168
I878
sV525dab2c0e34bc398181143e4cfa5dcc
p1169
I913
sVd1710a0b5ec069f528477674ec1e6817
p1170
I368
sVd4444244953f1ba2045b446e0b40543f
p1171
I937
sV5a9e53e9a2d79230745af3ea227c782c
p1172
I569
sV2529098e553450cef6ba3198a1c2eec4
p1173
I921
sV6edb99e28aa3385eea034d0f73b6952a
p1174
I182
sV3cd8a5804f22d78406024cdda9b86765
p1175
I982
sV16b8b11edca25cc367c1f337e3e15585
p1176
I718
sV26d69329a0f3b9abecbddd6abcb5b622
p1177
I74
sV3d721aaba32ce0115acf5ae870f09d1a
p1178
I726
sV160d1119e69a690584375096ff5775a2
p1179
I925
sVb30e2c6e6846c8d6151ac13a6ae18de1
p1180
I873
sV6c20590cdc614438085a61243b661e96
p1181
I186
sV92aa3b535f48ec05903a3b7fcdafd411
p1182
I66
sV634f618895493a04f7722f113a89947b
p1183
I880
sVc9c33695ee2a2f818e9f1d8f7d1c4b39
p1184
I10
sV338c2724a524a39f2cbcea5cdb4a615c
p1185
I480
sV428b15018aa4b3f1300f5294b9e64c23
p1186
I590
sV44d7222de803009fdead91772ec830e9
p1187
I555
sVa621bebe105d26cd338d4c54f35f52e6
p1188
I392
sV9d14543441470f3a4b26b4291ecb8ddf
p1189
I289
sV41a6f5de0a1ad6b60c40231699badb5d
p1190
I362
sVecb7650df74524bb39602c2983f3d4d4
p1191
I964
sV85fc24526708c6f6116a9a09b212d3fc
p1192
I495
sVabba62a6a83113e947f0b38a79e3c98b
p1193
I648
sVfa941827e1bb92613bece9a0a4494eee
p1194
I439
sVc31d5ea9d36cdc33c5c454dcbbd8d227
p1195
I482
sVf587b80cfc56627f1bc1384e39d37b8c
p1196
I945
sVc70dac1e7841801c3f8257de18f21561
p1197
I131
sV1ead0405d64a3f4637bcd00b3915eb3a
p1198
I609
sV53072af31d51fcdbc29dba6bc28a5011
p1199
I750
sV3d61dc38744a7f36140c27520060db59
p1200
I59
sV0492625ca98a35bd7d75849f6b4944ae
p1201
I672
sVd0b69919f18105a5b7b19c0cb34b12f8
p1202
I479
sV2af5a3cade1bbf97f4c9ddf64a74d75c
p1203
I328
sV7c07c4b44914e22e1596933c0b645115
p1204
I993
sVba82cb585bc2be6819241b2d1c900b88
p1205
I474
sVb6b016c0f2a85dbe2dbd93d33e6af3a2
p1206
I886
sVcb91d4992adf2a996e1454fb39434fb8
p1207
I920
sVa9f683f2f7a7fc38afda297721bcaea8
p1208
I774
sVb8ddc9905d78da6443a00434279640ea
p1209
I288
sV7dbded20b3fed08d7d100bf2214e624b
p1210
I954
sVe0d2b155350b5a0b580d5b8432943b23
p1211
I714
sV205f1a20fe0ebac01902c71a15dfbc9b
p1212
I872
sV5314d4635a5d2d0ce5af039d5982b200
p1213
I174
sVb68f249ae0aeb220626960fa1934c418
p1214
I267
sVad81dea6a56fe5b04e3980821950756c
p1215
I978
sVaed7370fbf4d746ef66259185c065cb2
p1216
I214
sVbe03b3b9e1caa5321ec40c388d7fd7a6
p1217
I533
sV546f784b992d2ba84024f41d342cafd7
p1218
I400
sVd13ddb71931663b61d2c105617d0c9cf
p1219
I568
ssbag1
(g107
g3
NtRp1220
(dp1221
g110
g168
sg112
(I-1
I1
tp1222
sbasS'only_train_photo_stats'
p1223
I00
sS'loader_photo_stats_photo_url'
p1224
g1
(g58
g3
NtRp1225
(dp1226
g15
(lp1227
g17
aS'photos'
p1228
asg62
g64
sbsS'loader_photo_stats_sharpness'
p1229
g1
(g72
g3
NtRp1230
(dp1231
g66
Nsg67
S'data/images_test.csv'
p1232
sg69
S'data/images_train.csv'
p1233
sbsS'only_train_photo_stats_photo_url'
p1234
I00
sS'operations_sentiment'
p1235
(lp1236
sS'only_train_features'
p1237
I00
sS'_base_pipeline_operations'
p1238
(lp1239
sS'_base_pipeline_only_train'
p1240
I00
sS'loader_main'
p1241
g89
sS'consumer_features'
p1242
g89
sS'operations_photo_stats_sharpness'
p1243
(lp1244
sS'_base_pipeline_loader'
p1245
NsS'loader_photo_cover'
p1246
g79
sbsS'final_transform'
p1247
g1
(crenthop.preprocessing.loaders
SeparateKey
p1248
g3
NtRp1249
(dp1250
S'key'
p1251
g180
sbsS'transformations'
p1252
(dp1253
g183
g1
(crenthop.preprocessing.loaders
PhotoLoaderGenerator
p1254
g3
NtRp1255
ssb.